
rtarget:     file format elf64-x86-64


Disassembly of section .init:

0000000000400c60 <_init>:
  400c60:	48 83 ec 08          	sub    $0x8,%rsp
  400c64:	48 8b 05 8d 43 20 00 	mov    0x20438d(%rip),%rax        # 604ff8 <__gmon_start__>
  400c6b:	48 85 c0             	test   %rax,%rax
  400c6e:	74 05                	je     400c75 <_init+0x15>
  400c70:	e8 2b 01 00 00       	callq  400da0 <__gmon_start__@plt>
  400c75:	48 83 c4 08          	add    $0x8,%rsp
  400c79:	c3                   	retq   

Disassembly of section .plt:

0000000000400c80 <.plt>:
  400c80:	ff 35 82 43 20 00    	pushq  0x204382(%rip)        # 605008 <_GLOBAL_OFFSET_TABLE_+0x8>
  400c86:	ff 25 84 43 20 00    	jmpq   *0x204384(%rip)        # 605010 <_GLOBAL_OFFSET_TABLE_+0x10>
  400c8c:	0f 1f 40 00          	nopl   0x0(%rax)

0000000000400c90 <strcasecmp@plt>:
  400c90:	ff 25 82 43 20 00    	jmpq   *0x204382(%rip)        # 605018 <strcasecmp@GLIBC_2.2.5>
  400c96:	68 00 00 00 00       	pushq  $0x0
  400c9b:	e9 e0 ff ff ff       	jmpq   400c80 <.plt>

0000000000400ca0 <__errno_location@plt>:
  400ca0:	ff 25 7a 43 20 00    	jmpq   *0x20437a(%rip)        # 605020 <__errno_location@GLIBC_2.2.5>
  400ca6:	68 01 00 00 00       	pushq  $0x1
  400cab:	e9 d0 ff ff ff       	jmpq   400c80 <.plt>

0000000000400cb0 <srandom@plt>:
  400cb0:	ff 25 72 43 20 00    	jmpq   *0x204372(%rip)        # 605028 <srandom@GLIBC_2.2.5>
  400cb6:	68 02 00 00 00       	pushq  $0x2
  400cbb:	e9 c0 ff ff ff       	jmpq   400c80 <.plt>

0000000000400cc0 <strncmp@plt>:
  400cc0:	ff 25 6a 43 20 00    	jmpq   *0x20436a(%rip)        # 605030 <strncmp@GLIBC_2.2.5>
  400cc6:	68 03 00 00 00       	pushq  $0x3
  400ccb:	e9 b0 ff ff ff       	jmpq   400c80 <.plt>

0000000000400cd0 <strcpy@plt>:
  400cd0:	ff 25 62 43 20 00    	jmpq   *0x204362(%rip)        # 605038 <strcpy@GLIBC_2.2.5>
  400cd6:	68 04 00 00 00       	pushq  $0x4
  400cdb:	e9 a0 ff ff ff       	jmpq   400c80 <.plt>

0000000000400ce0 <puts@plt>:
  400ce0:	ff 25 5a 43 20 00    	jmpq   *0x20435a(%rip)        # 605040 <puts@GLIBC_2.2.5>
  400ce6:	68 05 00 00 00       	pushq  $0x5
  400ceb:	e9 90 ff ff ff       	jmpq   400c80 <.plt>

0000000000400cf0 <write@plt>:
  400cf0:	ff 25 52 43 20 00    	jmpq   *0x204352(%rip)        # 605048 <write@GLIBC_2.2.5>
  400cf6:	68 06 00 00 00       	pushq  $0x6
  400cfb:	e9 80 ff ff ff       	jmpq   400c80 <.plt>

0000000000400d00 <__stack_chk_fail@plt>:
  400d00:	ff 25 4a 43 20 00    	jmpq   *0x20434a(%rip)        # 605050 <__stack_chk_fail@GLIBC_2.4>
  400d06:	68 07 00 00 00       	pushq  $0x7
  400d0b:	e9 70 ff ff ff       	jmpq   400c80 <.plt>

0000000000400d10 <mmap@plt>:
  400d10:	ff 25 42 43 20 00    	jmpq   *0x204342(%rip)        # 605058 <mmap@GLIBC_2.2.5>
  400d16:	68 08 00 00 00       	pushq  $0x8
  400d1b:	e9 60 ff ff ff       	jmpq   400c80 <.plt>

0000000000400d20 <memset@plt>:
  400d20:	ff 25 3a 43 20 00    	jmpq   *0x20433a(%rip)        # 605060 <memset@GLIBC_2.2.5>
  400d26:	68 09 00 00 00       	pushq  $0x9
  400d2b:	e9 50 ff ff ff       	jmpq   400c80 <.plt>

0000000000400d30 <alarm@plt>:
  400d30:	ff 25 32 43 20 00    	jmpq   *0x204332(%rip)        # 605068 <alarm@GLIBC_2.2.5>
  400d36:	68 0a 00 00 00       	pushq  $0xa
  400d3b:	e9 40 ff ff ff       	jmpq   400c80 <.plt>

0000000000400d40 <close@plt>:
  400d40:	ff 25 2a 43 20 00    	jmpq   *0x20432a(%rip)        # 605070 <close@GLIBC_2.2.5>
  400d46:	68 0b 00 00 00       	pushq  $0xb
  400d4b:	e9 30 ff ff ff       	jmpq   400c80 <.plt>

0000000000400d50 <read@plt>:
  400d50:	ff 25 22 43 20 00    	jmpq   *0x204322(%rip)        # 605078 <read@GLIBC_2.2.5>
  400d56:	68 0c 00 00 00       	pushq  $0xc
  400d5b:	e9 20 ff ff ff       	jmpq   400c80 <.plt>

0000000000400d60 <__libc_start_main@plt>:
  400d60:	ff 25 1a 43 20 00    	jmpq   *0x20431a(%rip)        # 605080 <__libc_start_main@GLIBC_2.2.5>
  400d66:	68 0d 00 00 00       	pushq  $0xd
  400d6b:	e9 10 ff ff ff       	jmpq   400c80 <.plt>

0000000000400d70 <signal@plt>:
  400d70:	ff 25 12 43 20 00    	jmpq   *0x204312(%rip)        # 605088 <signal@GLIBC_2.2.5>
  400d76:	68 0e 00 00 00       	pushq  $0xe
  400d7b:	e9 00 ff ff ff       	jmpq   400c80 <.plt>

0000000000400d80 <gethostbyname@plt>:
  400d80:	ff 25 0a 43 20 00    	jmpq   *0x20430a(%rip)        # 605090 <gethostbyname@GLIBC_2.2.5>
  400d86:	68 0f 00 00 00       	pushq  $0xf
  400d8b:	e9 f0 fe ff ff       	jmpq   400c80 <.plt>

0000000000400d90 <__memmove_chk@plt>:
  400d90:	ff 25 02 43 20 00    	jmpq   *0x204302(%rip)        # 605098 <__memmove_chk@GLIBC_2.3.4>
  400d96:	68 10 00 00 00       	pushq  $0x10
  400d9b:	e9 e0 fe ff ff       	jmpq   400c80 <.plt>

0000000000400da0 <__gmon_start__@plt>:
  400da0:	ff 25 fa 42 20 00    	jmpq   *0x2042fa(%rip)        # 6050a0 <__gmon_start__>
  400da6:	68 11 00 00 00       	pushq  $0x11
  400dab:	e9 d0 fe ff ff       	jmpq   400c80 <.plt>

0000000000400db0 <strtol@plt>:
  400db0:	ff 25 f2 42 20 00    	jmpq   *0x2042f2(%rip)        # 6050a8 <strtol@GLIBC_2.2.5>
  400db6:	68 12 00 00 00       	pushq  $0x12
  400dbb:	e9 c0 fe ff ff       	jmpq   400c80 <.plt>

0000000000400dc0 <memcpy@plt>:
  400dc0:	ff 25 ea 42 20 00    	jmpq   *0x2042ea(%rip)        # 6050b0 <memcpy@GLIBC_2.14>
  400dc6:	68 13 00 00 00       	pushq  $0x13
  400dcb:	e9 b0 fe ff ff       	jmpq   400c80 <.plt>

0000000000400dd0 <time@plt>:
  400dd0:	ff 25 e2 42 20 00    	jmpq   *0x2042e2(%rip)        # 6050b8 <time@GLIBC_2.2.5>
  400dd6:	68 14 00 00 00       	pushq  $0x14
  400ddb:	e9 a0 fe ff ff       	jmpq   400c80 <.plt>

0000000000400de0 <random@plt>:
  400de0:	ff 25 da 42 20 00    	jmpq   *0x2042da(%rip)        # 6050c0 <random@GLIBC_2.2.5>
  400de6:	68 15 00 00 00       	pushq  $0x15
  400deb:	e9 90 fe ff ff       	jmpq   400c80 <.plt>

0000000000400df0 <_IO_getc@plt>:
  400df0:	ff 25 d2 42 20 00    	jmpq   *0x2042d2(%rip)        # 6050c8 <_IO_getc@GLIBC_2.2.5>
  400df6:	68 16 00 00 00       	pushq  $0x16
  400dfb:	e9 80 fe ff ff       	jmpq   400c80 <.plt>

0000000000400e00 <__isoc99_sscanf@plt>:
  400e00:	ff 25 ca 42 20 00    	jmpq   *0x2042ca(%rip)        # 6050d0 <__isoc99_sscanf@GLIBC_2.7>
  400e06:	68 17 00 00 00       	pushq  $0x17
  400e0b:	e9 70 fe ff ff       	jmpq   400c80 <.plt>

0000000000400e10 <munmap@plt>:
  400e10:	ff 25 c2 42 20 00    	jmpq   *0x2042c2(%rip)        # 6050d8 <munmap@GLIBC_2.2.5>
  400e16:	68 18 00 00 00       	pushq  $0x18
  400e1b:	e9 60 fe ff ff       	jmpq   400c80 <.plt>

0000000000400e20 <__printf_chk@plt>:
  400e20:	ff 25 ba 42 20 00    	jmpq   *0x2042ba(%rip)        # 6050e0 <__printf_chk@GLIBC_2.3.4>
  400e26:	68 19 00 00 00       	pushq  $0x19
  400e2b:	e9 50 fe ff ff       	jmpq   400c80 <.plt>

0000000000400e30 <fopen@plt>:
  400e30:	ff 25 b2 42 20 00    	jmpq   *0x2042b2(%rip)        # 6050e8 <fopen@GLIBC_2.2.5>
  400e36:	68 1a 00 00 00       	pushq  $0x1a
  400e3b:	e9 40 fe ff ff       	jmpq   400c80 <.plt>

0000000000400e40 <getopt@plt>:
  400e40:	ff 25 aa 42 20 00    	jmpq   *0x2042aa(%rip)        # 6050f0 <getopt@GLIBC_2.2.5>
  400e46:	68 1b 00 00 00       	pushq  $0x1b
  400e4b:	e9 30 fe ff ff       	jmpq   400c80 <.plt>

0000000000400e50 <strtoul@plt>:
  400e50:	ff 25 a2 42 20 00    	jmpq   *0x2042a2(%rip)        # 6050f8 <strtoul@GLIBC_2.2.5>
  400e56:	68 1c 00 00 00       	pushq  $0x1c
  400e5b:	e9 20 fe ff ff       	jmpq   400c80 <.plt>

0000000000400e60 <gethostname@plt>:
  400e60:	ff 25 9a 42 20 00    	jmpq   *0x20429a(%rip)        # 605100 <gethostname@GLIBC_2.2.5>
  400e66:	68 1d 00 00 00       	pushq  $0x1d
  400e6b:	e9 10 fe ff ff       	jmpq   400c80 <.plt>

0000000000400e70 <exit@plt>:
  400e70:	ff 25 92 42 20 00    	jmpq   *0x204292(%rip)        # 605108 <exit@GLIBC_2.2.5>
  400e76:	68 1e 00 00 00       	pushq  $0x1e
  400e7b:	e9 00 fe ff ff       	jmpq   400c80 <.plt>

0000000000400e80 <connect@plt>:
  400e80:	ff 25 8a 42 20 00    	jmpq   *0x20428a(%rip)        # 605110 <connect@GLIBC_2.2.5>
  400e86:	68 1f 00 00 00       	pushq  $0x1f
  400e8b:	e9 f0 fd ff ff       	jmpq   400c80 <.plt>

0000000000400e90 <__fprintf_chk@plt>:
  400e90:	ff 25 82 42 20 00    	jmpq   *0x204282(%rip)        # 605118 <__fprintf_chk@GLIBC_2.3.4>
  400e96:	68 20 00 00 00       	pushq  $0x20
  400e9b:	e9 e0 fd ff ff       	jmpq   400c80 <.plt>

0000000000400ea0 <__sprintf_chk@plt>:
  400ea0:	ff 25 7a 42 20 00    	jmpq   *0x20427a(%rip)        # 605120 <__sprintf_chk@GLIBC_2.3.4>
  400ea6:	68 21 00 00 00       	pushq  $0x21
  400eab:	e9 d0 fd ff ff       	jmpq   400c80 <.plt>

0000000000400eb0 <socket@plt>:
  400eb0:	ff 25 72 42 20 00    	jmpq   *0x204272(%rip)        # 605128 <socket@GLIBC_2.2.5>
  400eb6:	68 22 00 00 00       	pushq  $0x22
  400ebb:	e9 c0 fd ff ff       	jmpq   400c80 <.plt>

Disassembly of section .text:

0000000000400ec0 <_start>:
  400ec0:	31 ed                	xor    %ebp,%ebp
  400ec2:	49 89 d1             	mov    %rdx,%r9
  400ec5:	5e                   	pop    %rsi
  400ec6:	48 89 e2             	mov    %rsp,%rdx
  400ec9:	48 83 e4 f0          	and    $0xfffffffffffffff0,%rsp
  400ecd:	50                   	push   %rax
  400ece:	54                   	push   %rsp
  400ecf:	49 c7 c0 d0 2f 40 00 	mov    $0x402fd0,%r8
  400ed6:	48 c7 c1 60 2f 40 00 	mov    $0x402f60,%rcx
  400edd:	48 c7 c7 9e 11 40 00 	mov    $0x40119e,%rdi
  400ee4:	e8 77 fe ff ff       	callq  400d60 <__libc_start_main@plt>
  400ee9:	f4                   	hlt    
  400eea:	66 0f 1f 44 00 00    	nopw   0x0(%rax,%rax,1)

0000000000400ef0 <deregister_tm_clones>:
  400ef0:	b8 b0 54 60 00       	mov    $0x6054b0,%eax
  400ef5:	48 3d b0 54 60 00    	cmp    $0x6054b0,%rax
  400efb:	74 13                	je     400f10 <deregister_tm_clones+0x20>
  400efd:	b8 00 00 00 00       	mov    $0x0,%eax
  400f02:	48 85 c0             	test   %rax,%rax
  400f05:	74 09                	je     400f10 <deregister_tm_clones+0x20>
  400f07:	bf b0 54 60 00       	mov    $0x6054b0,%edi
  400f0c:	ff e0                	jmpq   *%rax
  400f0e:	66 90                	xchg   %ax,%ax
  400f10:	c3                   	retq   
  400f11:	66 66 66 66 66 66 2e 	data16 data16 data16 data16 data16 nopw %cs:0x0(%rax,%rax,1)
  400f18:	0f 1f 84 00 00 00 00 
  400f1f:	00 

0000000000400f20 <register_tm_clones>:
  400f20:	be b0 54 60 00       	mov    $0x6054b0,%esi
  400f25:	48 81 ee b0 54 60 00 	sub    $0x6054b0,%rsi
  400f2c:	48 c1 fe 03          	sar    $0x3,%rsi
  400f30:	48 89 f0             	mov    %rsi,%rax
  400f33:	48 c1 e8 3f          	shr    $0x3f,%rax
  400f37:	48 01 c6             	add    %rax,%rsi
  400f3a:	48 d1 fe             	sar    %rsi
  400f3d:	74 11                	je     400f50 <register_tm_clones+0x30>
  400f3f:	b8 00 00 00 00       	mov    $0x0,%eax
  400f44:	48 85 c0             	test   %rax,%rax
  400f47:	74 07                	je     400f50 <register_tm_clones+0x30>
  400f49:	bf b0 54 60 00       	mov    $0x6054b0,%edi
  400f4e:	ff e0                	jmpq   *%rax
  400f50:	c3                   	retq   
  400f51:	66 66 66 66 66 66 2e 	data16 data16 data16 data16 data16 nopw %cs:0x0(%rax,%rax,1)
  400f58:	0f 1f 84 00 00 00 00 
  400f5f:	00 

0000000000400f60 <__do_global_dtors_aux>:
  400f60:	80 3d 89 45 20 00 00 	cmpb   $0x0,0x204589(%rip)        # 6054f0 <completed.7889>
  400f67:	75 17                	jne    400f80 <__do_global_dtors_aux+0x20>
  400f69:	55                   	push   %rbp
  400f6a:	48 89 e5             	mov    %rsp,%rbp
  400f6d:	e8 7e ff ff ff       	callq  400ef0 <deregister_tm_clones>
  400f72:	c6 05 77 45 20 00 01 	movb   $0x1,0x204577(%rip)        # 6054f0 <completed.7889>
  400f79:	5d                   	pop    %rbp
  400f7a:	c3                   	retq   
  400f7b:	0f 1f 44 00 00       	nopl   0x0(%rax,%rax,1)
  400f80:	c3                   	retq   
  400f81:	66 66 66 66 66 66 2e 	data16 data16 data16 data16 data16 nopw %cs:0x0(%rax,%rax,1)
  400f88:	0f 1f 84 00 00 00 00 
  400f8f:	00 

0000000000400f90 <frame_dummy>:
  400f90:	eb 8e                	jmp    400f20 <register_tm_clones>

0000000000400f92 <usage>:
  400f92:	48 83 ec 08          	sub    $0x8,%rsp
  400f96:	48 89 fa             	mov    %rdi,%rdx
  400f99:	83 3d 88 45 20 00 00 	cmpl   $0x0,0x204588(%rip)        # 605528 <is_checker>
  400fa0:	74 46                	je     400fe8 <usage+0x56>
  400fa2:	be e8 2f 40 00       	mov    $0x402fe8,%esi
  400fa7:	bf 01 00 00 00       	mov    $0x1,%edi
  400fac:	b8 00 00 00 00       	mov    $0x0,%eax
  400fb1:	e8 6a fe ff ff       	callq  400e20 <__printf_chk@plt>
  400fb6:	bf 20 30 40 00       	mov    $0x403020,%edi
  400fbb:	e8 20 fd ff ff       	callq  400ce0 <puts@plt>
  400fc0:	bf 98 31 40 00       	mov    $0x403198,%edi
  400fc5:	e8 16 fd ff ff       	callq  400ce0 <puts@plt>
  400fca:	bf 48 30 40 00       	mov    $0x403048,%edi
  400fcf:	e8 0c fd ff ff       	callq  400ce0 <puts@plt>
  400fd4:	bf b2 31 40 00       	mov    $0x4031b2,%edi
  400fd9:	e8 02 fd ff ff       	callq  400ce0 <puts@plt>
  400fde:	bf 00 00 00 00       	mov    $0x0,%edi
  400fe3:	e8 88 fe ff ff       	callq  400e70 <exit@plt>
  400fe8:	be ce 31 40 00       	mov    $0x4031ce,%esi
  400fed:	bf 01 00 00 00       	mov    $0x1,%edi
  400ff2:	b8 00 00 00 00       	mov    $0x0,%eax
  400ff7:	e8 24 fe ff ff       	callq  400e20 <__printf_chk@plt>
  400ffc:	bf 70 30 40 00       	mov    $0x403070,%edi
  401001:	e8 da fc ff ff       	callq  400ce0 <puts@plt>
  401006:	bf 98 30 40 00       	mov    $0x403098,%edi
  40100b:	e8 d0 fc ff ff       	callq  400ce0 <puts@plt>
  401010:	bf ec 31 40 00       	mov    $0x4031ec,%edi
  401015:	e8 c6 fc ff ff       	callq  400ce0 <puts@plt>
  40101a:	eb c2                	jmp    400fde <usage+0x4c>

000000000040101c <initialize_target>:
  40101c:	55                   	push   %rbp
  40101d:	53                   	push   %rbx
  40101e:	48 81 ec 18 21 00 00 	sub    $0x2118,%rsp
  401025:	89 f5                	mov    %esi,%ebp
  401027:	64 48 8b 04 25 28 00 	mov    %fs:0x28,%rax
  40102e:	00 00 
  401030:	48 89 84 24 08 21 00 	mov    %rax,0x2108(%rsp)
  401037:	00 
  401038:	31 c0                	xor    %eax,%eax
  40103a:	89 3d d8 44 20 00    	mov    %edi,0x2044d8(%rip)        # 605518 <check_level>
  401040:	8b 3d 22 41 20 00    	mov    0x204122(%rip),%edi        # 605168 <target_id>
  401046:	e8 eb 1e 00 00       	callq  402f36 <gencookie>
  40104b:	89 05 d3 44 20 00    	mov    %eax,0x2044d3(%rip)        # 605524 <cookie>
  401051:	89 c7                	mov    %eax,%edi
  401053:	e8 de 1e 00 00       	callq  402f36 <gencookie>
  401058:	89 05 c2 44 20 00    	mov    %eax,0x2044c2(%rip)        # 605520 <authkey>
  40105e:	8b 05 04 41 20 00    	mov    0x204104(%rip),%eax        # 605168 <target_id>
  401064:	8d 78 01             	lea    0x1(%rax),%edi
  401067:	e8 44 fc ff ff       	callq  400cb0 <srandom@plt>
  40106c:	e8 6f fd ff ff       	callq  400de0 <random@plt>
  401071:	89 c7                	mov    %eax,%edi
  401073:	e8 f2 02 00 00       	callq  40136a <scramble>
  401078:	89 c3                	mov    %eax,%ebx
  40107a:	85 ed                	test   %ebp,%ebp
  40107c:	75 54                	jne    4010d2 <initialize_target+0xb6>
  40107e:	b8 00 00 00 00       	mov    $0x0,%eax
  401083:	01 d8                	add    %ebx,%eax
  401085:	0f b7 c0             	movzwl %ax,%eax
  401088:	8d 04 c5 00 01 00 00 	lea    0x100(,%rax,8),%eax
  40108f:	89 c0                	mov    %eax,%eax
  401091:	48 89 05 08 44 20 00 	mov    %rax,0x204408(%rip)        # 6054a0 <buf_offset>
  401098:	c6 05 a9 50 20 00 72 	movb   $0x72,0x2050a9(%rip)        # 606148 <target_prefix>
  40109f:	83 3d 02 44 20 00 00 	cmpl   $0x0,0x204402(%rip)        # 6054a8 <notify>
  4010a6:	74 09                	je     4010b1 <initialize_target+0x95>
  4010a8:	83 3d 79 44 20 00 00 	cmpl   $0x0,0x204479(%rip)        # 605528 <is_checker>
  4010af:	74 39                	je     4010ea <initialize_target+0xce>
  4010b1:	48 8b 84 24 08 21 00 	mov    0x2108(%rsp),%rax
  4010b8:	00 
  4010b9:	64 48 33 04 25 28 00 	xor    %fs:0x28,%rax
  4010c0:	00 00 
  4010c2:	0f 85 d1 00 00 00    	jne    401199 <initialize_target+0x17d>
  4010c8:	48 81 c4 18 21 00 00 	add    $0x2118,%rsp
  4010cf:	5b                   	pop    %rbx
  4010d0:	5d                   	pop    %rbp
  4010d1:	c3                   	retq   
  4010d2:	bf 00 00 00 00       	mov    $0x0,%edi
  4010d7:	e8 f4 fc ff ff       	callq  400dd0 <time@plt>
  4010dc:	89 c7                	mov    %eax,%edi
  4010de:	e8 cd fb ff ff       	callq  400cb0 <srandom@plt>
  4010e3:	e8 f8 fc ff ff       	callq  400de0 <random@plt>
  4010e8:	eb 99                	jmp    401083 <initialize_target+0x67>
  4010ea:	be 00 01 00 00       	mov    $0x100,%esi
  4010ef:	48 89 e7             	mov    %rsp,%rdi
  4010f2:	e8 69 fd ff ff       	callq  400e60 <gethostname@plt>
  4010f7:	89 c5                	mov    %eax,%ebp
  4010f9:	85 c0                	test   %eax,%eax
  4010fb:	75 23                	jne    401120 <initialize_target+0x104>
  4010fd:	89 c3                	mov    %eax,%ebx
  4010ff:	48 63 c3             	movslq %ebx,%rax
  401102:	48 8b 3c c5 80 51 60 	mov    0x605180(,%rax,8),%rdi
  401109:	00 
  40110a:	48 85 ff             	test   %rdi,%rdi
  40110d:	74 2a                	je     401139 <initialize_target+0x11d>
  40110f:	48 89 e6             	mov    %rsp,%rsi
  401112:	e8 79 fb ff ff       	callq  400c90 <strcasecmp@plt>
  401117:	85 c0                	test   %eax,%eax
  401119:	74 19                	je     401134 <initialize_target+0x118>
  40111b:	83 c3 01             	add    $0x1,%ebx
  40111e:	eb df                	jmp    4010ff <initialize_target+0xe3>
  401120:	bf c8 30 40 00       	mov    $0x4030c8,%edi
  401125:	e8 b6 fb ff ff       	callq  400ce0 <puts@plt>
  40112a:	bf 08 00 00 00       	mov    $0x8,%edi
  40112f:	e8 3c fd ff ff       	callq  400e70 <exit@plt>
  401134:	bd 01 00 00 00       	mov    $0x1,%ebp
  401139:	85 ed                	test   %ebp,%ebp
  40113b:	74 3b                	je     401178 <initialize_target+0x15c>
  40113d:	48 8d bc 24 00 01 00 	lea    0x100(%rsp),%rdi
  401144:	00 
  401145:	e8 43 1b 00 00       	callq  402c8d <init_driver>
  40114a:	85 c0                	test   %eax,%eax
  40114c:	0f 89 5f ff ff ff    	jns    4010b1 <initialize_target+0x95>
  401152:	48 8d 94 24 00 01 00 	lea    0x100(%rsp),%rdx
  401159:	00 
  40115a:	be 40 31 40 00       	mov    $0x403140,%esi
  40115f:	bf 01 00 00 00       	mov    $0x1,%edi
  401164:	b8 00 00 00 00       	mov    $0x0,%eax
  401169:	e8 b2 fc ff ff       	callq  400e20 <__printf_chk@plt>
  40116e:	bf 08 00 00 00       	mov    $0x8,%edi
  401173:	e8 f8 fc ff ff       	callq  400e70 <exit@plt>
  401178:	48 89 e2             	mov    %rsp,%rdx
  40117b:	be 00 31 40 00       	mov    $0x403100,%esi
  401180:	bf 01 00 00 00       	mov    $0x1,%edi
  401185:	b8 00 00 00 00       	mov    $0x0,%eax
  40118a:	e8 91 fc ff ff       	callq  400e20 <__printf_chk@plt>
  40118f:	bf 08 00 00 00       	mov    $0x8,%edi
  401194:	e8 d7 fc ff ff       	callq  400e70 <exit@plt>
  401199:	e8 62 fb ff ff       	callq  400d00 <__stack_chk_fail@plt>

000000000040119e <main>:
  40119e:	41 56                	push   %r14
  4011a0:	41 55                	push   %r13
  4011a2:	41 54                	push   %r12
  4011a4:	55                   	push   %rbp
  4011a5:	53                   	push   %rbx
  4011a6:	89 fd                	mov    %edi,%ebp
  4011a8:	48 89 f3             	mov    %rsi,%rbx
  4011ab:	be c3 1f 40 00       	mov    $0x401fc3,%esi
  4011b0:	bf 0b 00 00 00       	mov    $0xb,%edi
  4011b5:	e8 b6 fb ff ff       	callq  400d70 <signal@plt>
  4011ba:	be 75 1f 40 00       	mov    $0x401f75,%esi
  4011bf:	bf 07 00 00 00       	mov    $0x7,%edi
  4011c4:	e8 a7 fb ff ff       	callq  400d70 <signal@plt>
  4011c9:	be 11 20 40 00       	mov    $0x402011,%esi
  4011ce:	bf 04 00 00 00       	mov    $0x4,%edi
  4011d3:	e8 98 fb ff ff       	callq  400d70 <signal@plt>
  4011d8:	83 3d 49 43 20 00 00 	cmpl   $0x0,0x204349(%rip)        # 605528 <is_checker>
  4011df:	75 25                	jne    401206 <main+0x68>
  4011e1:	41 bc 0d 32 40 00    	mov    $0x40320d,%r12d
  4011e7:	48 8b 05 d2 42 20 00 	mov    0x2042d2(%rip),%rax        # 6054c0 <stdin@@GLIBC_2.2.5>
  4011ee:	48 89 05 1b 43 20 00 	mov    %rax,0x20431b(%rip)        # 605510 <infile>
  4011f5:	41 bd 00 00 00 00    	mov    $0x0,%r13d
  4011fb:	41 be 00 00 00 00    	mov    $0x0,%r14d
  401201:	e9 86 00 00 00       	jmpq   40128c <main+0xee>
  401206:	be 5f 20 40 00       	mov    $0x40205f,%esi
  40120b:	bf 0e 00 00 00       	mov    $0xe,%edi
  401210:	e8 5b fb ff ff       	callq  400d70 <signal@plt>
  401215:	bf 05 00 00 00       	mov    $0x5,%edi
  40121a:	e8 11 fb ff ff       	callq  400d30 <alarm@plt>
  40121f:	41 bc 05 32 40 00    	mov    $0x403205,%r12d
  401225:	eb c0                	jmp    4011e7 <main+0x49>
  401227:	48 8b 3b             	mov    (%rbx),%rdi
  40122a:	e8 63 fd ff ff       	callq  400f92 <usage>
  40122f:	be c5 34 40 00       	mov    $0x4034c5,%esi
  401234:	48 8b 3d a5 42 20 00 	mov    0x2042a5(%rip),%rdi        # 6054e0 <optarg@@GLIBC_2.2.5>
  40123b:	e8 f0 fb ff ff       	callq  400e30 <fopen@plt>
  401240:	48 89 05 c9 42 20 00 	mov    %rax,0x2042c9(%rip)        # 605510 <infile>
  401247:	48 85 c0             	test   %rax,%rax
  40124a:	75 40                	jne    40128c <main+0xee>
  40124c:	48 8b 0d 8d 42 20 00 	mov    0x20428d(%rip),%rcx        # 6054e0 <optarg@@GLIBC_2.2.5>
  401253:	ba 12 32 40 00       	mov    $0x403212,%edx
  401258:	be 01 00 00 00       	mov    $0x1,%esi
  40125d:	48 8b 3d 84 42 20 00 	mov    0x204284(%rip),%rdi        # 6054e8 <stderr@@GLIBC_2.2.5>
  401264:	e8 27 fc ff ff       	callq  400e90 <__fprintf_chk@plt>
  401269:	b8 01 00 00 00       	mov    $0x1,%eax
  40126e:	e9 cb 00 00 00       	jmpq   40133e <main+0x1a0>
  401273:	ba 10 00 00 00       	mov    $0x10,%edx
  401278:	be 00 00 00 00       	mov    $0x0,%esi
  40127d:	48 8b 3d 5c 42 20 00 	mov    0x20425c(%rip),%rdi        # 6054e0 <optarg@@GLIBC_2.2.5>
  401284:	e8 c7 fb ff ff       	callq  400e50 <strtoul@plt>
  401289:	41 89 c6             	mov    %eax,%r14d
  40128c:	4c 89 e2             	mov    %r12,%rdx
  40128f:	48 89 de             	mov    %rbx,%rsi
  401292:	89 ef                	mov    %ebp,%edi
  401294:	e8 a7 fb ff ff       	callq  400e40 <getopt@plt>
  401299:	3c ff                	cmp    $0xff,%al
  40129b:	74 57                	je     4012f4 <main+0x156>
  40129d:	0f be d0             	movsbl %al,%edx
  4012a0:	83 e8 61             	sub    $0x61,%eax
  4012a3:	3c 10                	cmp    $0x10,%al
  4012a5:	77 31                	ja     4012d8 <main+0x13a>
  4012a7:	0f b6 c0             	movzbl %al,%eax
  4012aa:	ff 24 c5 50 32 40 00 	jmpq   *0x403250(,%rax,8)
  4012b1:	ba 0a 00 00 00       	mov    $0xa,%edx
  4012b6:	be 00 00 00 00       	mov    $0x0,%esi
  4012bb:	48 8b 3d 1e 42 20 00 	mov    0x20421e(%rip),%rdi        # 6054e0 <optarg@@GLIBC_2.2.5>
  4012c2:	e8 e9 fa ff ff       	callq  400db0 <strtol@plt>
  4012c7:	41 89 c5             	mov    %eax,%r13d
  4012ca:	eb c0                	jmp    40128c <main+0xee>
  4012cc:	c7 05 d2 41 20 00 00 	movl   $0x0,0x2041d2(%rip)        # 6054a8 <notify>
  4012d3:	00 00 00 
  4012d6:	eb b4                	jmp    40128c <main+0xee>
  4012d8:	be 2f 32 40 00       	mov    $0x40322f,%esi
  4012dd:	bf 01 00 00 00       	mov    $0x1,%edi
  4012e2:	b8 00 00 00 00       	mov    $0x0,%eax
  4012e7:	e8 34 fb ff ff       	callq  400e20 <__printf_chk@plt>
  4012ec:	48 8b 3b             	mov    (%rbx),%rdi
  4012ef:	e8 9e fc ff ff       	callq  400f92 <usage>
  4012f4:	be 01 00 00 00       	mov    $0x1,%esi
  4012f9:	44 89 ef             	mov    %r13d,%edi
  4012fc:	e8 1b fd ff ff       	callq  40101c <initialize_target>
  401301:	83 3d 20 42 20 00 00 	cmpl   $0x0,0x204220(%rip)        # 605528 <is_checker>
  401308:	74 09                	je     401313 <main+0x175>
  40130a:	44 39 35 0f 42 20 00 	cmp    %r14d,0x20420f(%rip)        # 605520 <authkey>
  401311:	75 34                	jne    401347 <main+0x1a9>
  401313:	8b 15 0b 42 20 00    	mov    0x20420b(%rip),%edx        # 605524 <cookie>
  401319:	be 42 32 40 00       	mov    $0x403242,%esi
  40131e:	bf 01 00 00 00       	mov    $0x1,%edi
  401323:	b8 00 00 00 00       	mov    $0x0,%eax
  401328:	e8 f3 fa ff ff       	callq  400e20 <__printf_chk@plt>
  40132d:	48 8b 3d 6c 41 20 00 	mov    0x20416c(%rip),%rdi        # 6054a0 <buf_offset>
  401334:	e8 79 0d 00 00       	callq  4020b2 <launch>
  401339:	b8 00 00 00 00       	mov    $0x0,%eax
  40133e:	5b                   	pop    %rbx
  40133f:	5d                   	pop    %rbp
  401340:	41 5c                	pop    %r12
  401342:	41 5d                	pop    %r13
  401344:	41 5e                	pop    %r14
  401346:	c3                   	retq   
  401347:	44 89 f2             	mov    %r14d,%edx
  40134a:	be 68 31 40 00       	mov    $0x403168,%esi
  40134f:	bf 01 00 00 00       	mov    $0x1,%edi
  401354:	b8 00 00 00 00       	mov    $0x0,%eax
  401359:	e8 c2 fa ff ff       	callq  400e20 <__printf_chk@plt>
  40135e:	b8 00 00 00 00       	mov    $0x0,%eax
  401363:	e8 a2 08 00 00       	callq  401c0a <check_fail>
  401368:	eb a9                	jmp    401313 <main+0x175>

000000000040136a <scramble>:
  40136a:	b8 00 00 00 00       	mov    $0x0,%eax
  40136f:	83 f8 09             	cmp    $0x9,%eax
  401372:	77 13                	ja     401387 <scramble+0x1d>
  401374:	69 d0 49 1a 00 00    	imul   $0x1a49,%eax,%edx
  40137a:	01 fa                	add    %edi,%edx
  40137c:	89 c1                	mov    %eax,%ecx
  40137e:	89 54 8c c8          	mov    %edx,-0x38(%rsp,%rcx,4)
  401382:	83 c0 01             	add    $0x1,%eax
  401385:	eb e8                	jmp    40136f <scramble+0x5>
  401387:	8b 44 24 cc          	mov    -0x34(%rsp),%eax
  40138b:	69 c0 e7 ba 00 00    	imul   $0xbae7,%eax,%eax
  401391:	89 44 24 cc          	mov    %eax,-0x34(%rsp)
  401395:	8b 44 24 ec          	mov    -0x14(%rsp),%eax
  401399:	69 c0 3c 06 00 00    	imul   $0x63c,%eax,%eax
  40139f:	89 44 24 ec          	mov    %eax,-0x14(%rsp)
  4013a3:	8b 44 24 dc          	mov    -0x24(%rsp),%eax
  4013a7:	69 c0 95 0f 00 00    	imul   $0xf95,%eax,%eax
  4013ad:	89 44 24 dc          	mov    %eax,-0x24(%rsp)
  4013b1:	8b 44 24 d0          	mov    -0x30(%rsp),%eax
  4013b5:	69 c0 c4 f3 00 00    	imul   $0xf3c4,%eax,%eax
  4013bb:	89 44 24 d0          	mov    %eax,-0x30(%rsp)
  4013bf:	8b 44 24 ec          	mov    -0x14(%rsp),%eax
  4013c3:	69 c0 e0 31 00 00    	imul   $0x31e0,%eax,%eax
  4013c9:	89 44 24 ec          	mov    %eax,-0x14(%rsp)
  4013cd:	8b 44 24 d8          	mov    -0x28(%rsp),%eax
  4013d1:	69 c0 3b e6 00 00    	imul   $0xe63b,%eax,%eax
  4013d7:	89 44 24 d8          	mov    %eax,-0x28(%rsp)
  4013db:	8b 44 24 c8          	mov    -0x38(%rsp),%eax
  4013df:	69 c0 8b dc 00 00    	imul   $0xdc8b,%eax,%eax
  4013e5:	89 44 24 c8          	mov    %eax,-0x38(%rsp)
  4013e9:	8b 44 24 ec          	mov    -0x14(%rsp),%eax
  4013ed:	69 c0 76 96 00 00    	imul   $0x9676,%eax,%eax
  4013f3:	89 44 24 ec          	mov    %eax,-0x14(%rsp)
  4013f7:	8b 44 24 d8          	mov    -0x28(%rsp),%eax
  4013fb:	69 c0 f2 25 00 00    	imul   $0x25f2,%eax,%eax
  401401:	89 44 24 d8          	mov    %eax,-0x28(%rsp)
  401405:	8b 44 24 e4          	mov    -0x1c(%rsp),%eax
  401409:	69 c0 a9 0c 00 00    	imul   $0xca9,%eax,%eax
  40140f:	89 44 24 e4          	mov    %eax,-0x1c(%rsp)
  401413:	8b 44 24 e4          	mov    -0x1c(%rsp),%eax
  401417:	69 c0 31 b8 00 00    	imul   $0xb831,%eax,%eax
  40141d:	89 44 24 e4          	mov    %eax,-0x1c(%rsp)
  401421:	8b 44 24 cc          	mov    -0x34(%rsp),%eax
  401425:	69 c0 e5 b5 00 00    	imul   $0xb5e5,%eax,%eax
  40142b:	89 44 24 cc          	mov    %eax,-0x34(%rsp)
  40142f:	8b 44 24 e0          	mov    -0x20(%rsp),%eax
  401433:	69 c0 c5 37 00 00    	imul   $0x37c5,%eax,%eax
  401439:	89 44 24 e0          	mov    %eax,-0x20(%rsp)
  40143d:	8b 44 24 e0          	mov    -0x20(%rsp),%eax
  401441:	69 c0 a0 f5 00 00    	imul   $0xf5a0,%eax,%eax
  401447:	89 44 24 e0          	mov    %eax,-0x20(%rsp)
  40144b:	8b 44 24 d4          	mov    -0x2c(%rsp),%eax
  40144f:	69 c0 15 db 00 00    	imul   $0xdb15,%eax,%eax
  401455:	89 44 24 d4          	mov    %eax,-0x2c(%rsp)
  401459:	8b 44 24 d8          	mov    -0x28(%rsp),%eax
  40145d:	69 c0 37 b9 00 00    	imul   $0xb937,%eax,%eax
  401463:	89 44 24 d8          	mov    %eax,-0x28(%rsp)
  401467:	8b 44 24 dc          	mov    -0x24(%rsp),%eax
  40146b:	69 c0 57 e9 00 00    	imul   $0xe957,%eax,%eax
  401471:	89 44 24 dc          	mov    %eax,-0x24(%rsp)
  401475:	8b 44 24 c8          	mov    -0x38(%rsp),%eax
  401479:	69 c0 08 a1 00 00    	imul   $0xa108,%eax,%eax
  40147f:	89 44 24 c8          	mov    %eax,-0x38(%rsp)
  401483:	8b 44 24 c8          	mov    -0x38(%rsp),%eax
  401487:	69 c0 25 d3 00 00    	imul   $0xd325,%eax,%eax
  40148d:	89 44 24 c8          	mov    %eax,-0x38(%rsp)
  401491:	8b 44 24 d4          	mov    -0x2c(%rsp),%eax
  401495:	69 c0 8d 17 00 00    	imul   $0x178d,%eax,%eax
  40149b:	89 44 24 d4          	mov    %eax,-0x2c(%rsp)
  40149f:	8b 44 24 e0          	mov    -0x20(%rsp),%eax
  4014a3:	69 c0 37 a0 00 00    	imul   $0xa037,%eax,%eax
  4014a9:	89 44 24 e0          	mov    %eax,-0x20(%rsp)
  4014ad:	8b 44 24 e8          	mov    -0x18(%rsp),%eax
  4014b1:	69 c0 4c 58 00 00    	imul   $0x584c,%eax,%eax
  4014b7:	89 44 24 e8          	mov    %eax,-0x18(%rsp)
  4014bb:	8b 44 24 e8          	mov    -0x18(%rsp),%eax
  4014bf:	69 c0 ce 2a 00 00    	imul   $0x2ace,%eax,%eax
  4014c5:	89 44 24 e8          	mov    %eax,-0x18(%rsp)
  4014c9:	8b 44 24 d0          	mov    -0x30(%rsp),%eax
  4014cd:	69 c0 a1 5f 00 00    	imul   $0x5fa1,%eax,%eax
  4014d3:	89 44 24 d0          	mov    %eax,-0x30(%rsp)
  4014d7:	8b 44 24 d8          	mov    -0x28(%rsp),%eax
  4014db:	69 c0 34 5d 00 00    	imul   $0x5d34,%eax,%eax
  4014e1:	89 44 24 d8          	mov    %eax,-0x28(%rsp)
  4014e5:	8b 44 24 d4          	mov    -0x2c(%rsp),%eax
  4014e9:	69 c0 37 5a 00 00    	imul   $0x5a37,%eax,%eax
  4014ef:	89 44 24 d4          	mov    %eax,-0x2c(%rsp)
  4014f3:	8b 44 24 d8          	mov    -0x28(%rsp),%eax
  4014f7:	69 c0 54 76 00 00    	imul   $0x7654,%eax,%eax
  4014fd:	89 44 24 d8          	mov    %eax,-0x28(%rsp)
  401501:	8b 44 24 d4          	mov    -0x2c(%rsp),%eax
  401505:	69 c0 f4 8f 00 00    	imul   $0x8ff4,%eax,%eax
  40150b:	89 44 24 d4          	mov    %eax,-0x2c(%rsp)
  40150f:	8b 44 24 e8          	mov    -0x18(%rsp),%eax
  401513:	69 c0 7f ad 00 00    	imul   $0xad7f,%eax,%eax
  401519:	89 44 24 e8          	mov    %eax,-0x18(%rsp)
  40151d:	8b 44 24 d0          	mov    -0x30(%rsp),%eax
  401521:	69 c0 07 4d 00 00    	imul   $0x4d07,%eax,%eax
  401527:	89 44 24 d0          	mov    %eax,-0x30(%rsp)
  40152b:	8b 44 24 d8          	mov    -0x28(%rsp),%eax
  40152f:	69 c0 ec 8b 00 00    	imul   $0x8bec,%eax,%eax
  401535:	89 44 24 d8          	mov    %eax,-0x28(%rsp)
  401539:	8b 44 24 ec          	mov    -0x14(%rsp),%eax
  40153d:	69 c0 90 1e 00 00    	imul   $0x1e90,%eax,%eax
  401543:	89 44 24 ec          	mov    %eax,-0x14(%rsp)
  401547:	8b 44 24 d0          	mov    -0x30(%rsp),%eax
  40154b:	69 c0 b2 c5 00 00    	imul   $0xc5b2,%eax,%eax
  401551:	89 44 24 d0          	mov    %eax,-0x30(%rsp)
  401555:	8b 44 24 e4          	mov    -0x1c(%rsp),%eax
  401559:	69 c0 2f 6e 00 00    	imul   $0x6e2f,%eax,%eax
  40155f:	89 44 24 e4          	mov    %eax,-0x1c(%rsp)
  401563:	8b 44 24 d8          	mov    -0x28(%rsp),%eax
  401567:	69 c0 64 54 00 00    	imul   $0x5464,%eax,%eax
  40156d:	89 44 24 d8          	mov    %eax,-0x28(%rsp)
  401571:	8b 44 24 d4          	mov    -0x2c(%rsp),%eax
  401575:	69 c0 dc 9d 00 00    	imul   $0x9ddc,%eax,%eax
  40157b:	89 44 24 d4          	mov    %eax,-0x2c(%rsp)
  40157f:	8b 44 24 d0          	mov    -0x30(%rsp),%eax
  401583:	69 c0 84 83 00 00    	imul   $0x8384,%eax,%eax
  401589:	89 44 24 d0          	mov    %eax,-0x30(%rsp)
  40158d:	8b 44 24 c8          	mov    -0x38(%rsp),%eax
  401591:	69 c0 5e 71 00 00    	imul   $0x715e,%eax,%eax
  401597:	89 44 24 c8          	mov    %eax,-0x38(%rsp)
  40159b:	8b 44 24 d4          	mov    -0x2c(%rsp),%eax
  40159f:	69 c0 ea e4 00 00    	imul   $0xe4ea,%eax,%eax
  4015a5:	89 44 24 d4          	mov    %eax,-0x2c(%rsp)
  4015a9:	8b 44 24 e0          	mov    -0x20(%rsp),%eax
  4015ad:	69 c0 12 ff 00 00    	imul   $0xff12,%eax,%eax
  4015b3:	89 44 24 e0          	mov    %eax,-0x20(%rsp)
  4015b7:	8b 44 24 d4          	mov    -0x2c(%rsp),%eax
  4015bb:	69 c0 4a 3d 00 00    	imul   $0x3d4a,%eax,%eax
  4015c1:	89 44 24 d4          	mov    %eax,-0x2c(%rsp)
  4015c5:	8b 44 24 d0          	mov    -0x30(%rsp),%eax
  4015c9:	69 c0 83 57 00 00    	imul   $0x5783,%eax,%eax
  4015cf:	89 44 24 d0          	mov    %eax,-0x30(%rsp)
  4015d3:	8b 44 24 e4          	mov    -0x1c(%rsp),%eax
  4015d7:	69 c0 66 69 00 00    	imul   $0x6966,%eax,%eax
  4015dd:	89 44 24 e4          	mov    %eax,-0x1c(%rsp)
  4015e1:	8b 44 24 dc          	mov    -0x24(%rsp),%eax
  4015e5:	69 c0 b7 61 00 00    	imul   $0x61b7,%eax,%eax
  4015eb:	89 44 24 dc          	mov    %eax,-0x24(%rsp)
  4015ef:	8b 44 24 e4          	mov    -0x1c(%rsp),%eax
  4015f3:	69 c0 0c 6d 00 00    	imul   $0x6d0c,%eax,%eax
  4015f9:	89 44 24 e4          	mov    %eax,-0x1c(%rsp)
  4015fd:	8b 44 24 d0          	mov    -0x30(%rsp),%eax
  401601:	69 c0 79 9f 00 00    	imul   $0x9f79,%eax,%eax
  401607:	89 44 24 d0          	mov    %eax,-0x30(%rsp)
  40160b:	8b 44 24 dc          	mov    -0x24(%rsp),%eax
  40160f:	69 c0 fd b4 00 00    	imul   $0xb4fd,%eax,%eax
  401615:	89 44 24 dc          	mov    %eax,-0x24(%rsp)
  401619:	8b 44 24 e4          	mov    -0x1c(%rsp),%eax
  40161d:	69 c0 3b 6e 00 00    	imul   $0x6e3b,%eax,%eax
  401623:	89 44 24 e4          	mov    %eax,-0x1c(%rsp)
  401627:	8b 44 24 d0          	mov    -0x30(%rsp),%eax
  40162b:	69 c0 a2 7d 00 00    	imul   $0x7da2,%eax,%eax
  401631:	89 44 24 d0          	mov    %eax,-0x30(%rsp)
  401635:	8b 44 24 d8          	mov    -0x28(%rsp),%eax
  401639:	69 c0 86 13 00 00    	imul   $0x1386,%eax,%eax
  40163f:	89 44 24 d8          	mov    %eax,-0x28(%rsp)
  401643:	8b 44 24 e4          	mov    -0x1c(%rsp),%eax
  401647:	69 c0 27 62 00 00    	imul   $0x6227,%eax,%eax
  40164d:	89 44 24 e4          	mov    %eax,-0x1c(%rsp)
  401651:	8b 44 24 d4          	mov    -0x2c(%rsp),%eax
  401655:	69 c0 a2 c6 00 00    	imul   $0xc6a2,%eax,%eax
  40165b:	89 44 24 d4          	mov    %eax,-0x2c(%rsp)
  40165f:	8b 44 24 e0          	mov    -0x20(%rsp),%eax
  401663:	69 c0 8b a7 00 00    	imul   $0xa78b,%eax,%eax
  401669:	89 44 24 e0          	mov    %eax,-0x20(%rsp)
  40166d:	8b 44 24 d8          	mov    -0x28(%rsp),%eax
  401671:	69 c0 fe 93 00 00    	imul   $0x93fe,%eax,%eax
  401677:	89 44 24 d8          	mov    %eax,-0x28(%rsp)
  40167b:	8b 44 24 c8          	mov    -0x38(%rsp),%eax
  40167f:	69 c0 ff 08 00 00    	imul   $0x8ff,%eax,%eax
  401685:	89 44 24 c8          	mov    %eax,-0x38(%rsp)
  401689:	8b 44 24 ec          	mov    -0x14(%rsp),%eax
  40168d:	69 c0 94 ce 00 00    	imul   $0xce94,%eax,%eax
  401693:	89 44 24 ec          	mov    %eax,-0x14(%rsp)
  401697:	8b 44 24 d8          	mov    -0x28(%rsp),%eax
  40169b:	69 c0 5a ec 00 00    	imul   $0xec5a,%eax,%eax
  4016a1:	89 44 24 d8          	mov    %eax,-0x28(%rsp)
  4016a5:	8b 44 24 e0          	mov    -0x20(%rsp),%eax
  4016a9:	69 c0 e7 f9 00 00    	imul   $0xf9e7,%eax,%eax
  4016af:	89 44 24 e0          	mov    %eax,-0x20(%rsp)
  4016b3:	8b 44 24 cc          	mov    -0x34(%rsp),%eax
  4016b7:	69 c0 8f 0d 00 00    	imul   $0xd8f,%eax,%eax
  4016bd:	89 44 24 cc          	mov    %eax,-0x34(%rsp)
  4016c1:	8b 44 24 cc          	mov    -0x34(%rsp),%eax
  4016c5:	69 c0 a5 6c 00 00    	imul   $0x6ca5,%eax,%eax
  4016cb:	89 44 24 cc          	mov    %eax,-0x34(%rsp)
  4016cf:	8b 44 24 c8          	mov    -0x38(%rsp),%eax
  4016d3:	69 c0 5e 0a 00 00    	imul   $0xa5e,%eax,%eax
  4016d9:	89 44 24 c8          	mov    %eax,-0x38(%rsp)
  4016dd:	8b 44 24 d4          	mov    -0x2c(%rsp),%eax
  4016e1:	69 c0 93 73 00 00    	imul   $0x7393,%eax,%eax
  4016e7:	89 44 24 d4          	mov    %eax,-0x2c(%rsp)
  4016eb:	8b 44 24 e0          	mov    -0x20(%rsp),%eax
  4016ef:	69 c0 27 ca 00 00    	imul   $0xca27,%eax,%eax
  4016f5:	89 44 24 e0          	mov    %eax,-0x20(%rsp)
  4016f9:	8b 44 24 ec          	mov    -0x14(%rsp),%eax
  4016fd:	69 c0 0b 3a 00 00    	imul   $0x3a0b,%eax,%eax
  401703:	89 44 24 ec          	mov    %eax,-0x14(%rsp)
  401707:	8b 44 24 e4          	mov    -0x1c(%rsp),%eax
  40170b:	69 c0 39 be 00 00    	imul   $0xbe39,%eax,%eax
  401711:	89 44 24 e4          	mov    %eax,-0x1c(%rsp)
  401715:	8b 44 24 c8          	mov    -0x38(%rsp),%eax
  401719:	69 c0 d0 19 00 00    	imul   $0x19d0,%eax,%eax
  40171f:	89 44 24 c8          	mov    %eax,-0x38(%rsp)
  401723:	8b 44 24 e0          	mov    -0x20(%rsp),%eax
  401727:	69 c0 f4 fe 00 00    	imul   $0xfef4,%eax,%eax
  40172d:	89 44 24 e0          	mov    %eax,-0x20(%rsp)
  401731:	8b 44 24 e8          	mov    -0x18(%rsp),%eax
  401735:	69 c0 0b 06 00 00    	imul   $0x60b,%eax,%eax
  40173b:	89 44 24 e8          	mov    %eax,-0x18(%rsp)
  40173f:	8b 44 24 cc          	mov    -0x34(%rsp),%eax
  401743:	69 c0 72 18 00 00    	imul   $0x1872,%eax,%eax
  401749:	89 44 24 cc          	mov    %eax,-0x34(%rsp)
  40174d:	8b 44 24 d4          	mov    -0x2c(%rsp),%eax
  401751:	69 c0 f6 32 00 00    	imul   $0x32f6,%eax,%eax
  401757:	89 44 24 d4          	mov    %eax,-0x2c(%rsp)
  40175b:	8b 44 24 d8          	mov    -0x28(%rsp),%eax
  40175f:	69 c0 1a 2d 00 00    	imul   $0x2d1a,%eax,%eax
  401765:	89 44 24 d8          	mov    %eax,-0x28(%rsp)
  401769:	8b 44 24 e8          	mov    -0x18(%rsp),%eax
  40176d:	69 c0 bb 67 00 00    	imul   $0x67bb,%eax,%eax
  401773:	89 44 24 e8          	mov    %eax,-0x18(%rsp)
  401777:	8b 44 24 e8          	mov    -0x18(%rsp),%eax
  40177b:	69 c0 a2 27 00 00    	imul   $0x27a2,%eax,%eax
  401781:	89 44 24 e8          	mov    %eax,-0x18(%rsp)
  401785:	8b 44 24 d0          	mov    -0x30(%rsp),%eax
  401789:	69 c0 34 6f 00 00    	imul   $0x6f34,%eax,%eax
  40178f:	89 44 24 d0          	mov    %eax,-0x30(%rsp)
  401793:	8b 44 24 ec          	mov    -0x14(%rsp),%eax
  401797:	69 c0 41 bd 00 00    	imul   $0xbd41,%eax,%eax
  40179d:	89 44 24 ec          	mov    %eax,-0x14(%rsp)
  4017a1:	8b 44 24 ec          	mov    -0x14(%rsp),%eax
  4017a5:	69 c0 cd af 00 00    	imul   $0xafcd,%eax,%eax
  4017ab:	89 44 24 ec          	mov    %eax,-0x14(%rsp)
  4017af:	8b 44 24 e4          	mov    -0x1c(%rsp),%eax
  4017b3:	69 c0 f7 e7 00 00    	imul   $0xe7f7,%eax,%eax
  4017b9:	89 44 24 e4          	mov    %eax,-0x1c(%rsp)
  4017bd:	8b 44 24 c8          	mov    -0x38(%rsp),%eax
  4017c1:	69 c0 fb 86 00 00    	imul   $0x86fb,%eax,%eax
  4017c7:	89 44 24 c8          	mov    %eax,-0x38(%rsp)
  4017cb:	8b 44 24 e8          	mov    -0x18(%rsp),%eax
  4017cf:	69 c0 2f 05 00 00    	imul   $0x52f,%eax,%eax
  4017d5:	89 44 24 e8          	mov    %eax,-0x18(%rsp)
  4017d9:	8b 44 24 e0          	mov    -0x20(%rsp),%eax
  4017dd:	69 c0 e8 f9 00 00    	imul   $0xf9e8,%eax,%eax
  4017e3:	89 44 24 e0          	mov    %eax,-0x20(%rsp)
  4017e7:	8b 44 24 e0          	mov    -0x20(%rsp),%eax
  4017eb:	69 c0 97 0e 00 00    	imul   $0xe97,%eax,%eax
  4017f1:	89 44 24 e0          	mov    %eax,-0x20(%rsp)
  4017f5:	8b 44 24 d8          	mov    -0x28(%rsp),%eax
  4017f9:	69 c0 c8 e3 00 00    	imul   $0xe3c8,%eax,%eax
  4017ff:	89 44 24 d8          	mov    %eax,-0x28(%rsp)
  401803:	8b 44 24 d8          	mov    -0x28(%rsp),%eax
  401807:	69 c0 2a f4 00 00    	imul   $0xf42a,%eax,%eax
  40180d:	89 44 24 d8          	mov    %eax,-0x28(%rsp)
  401811:	8b 44 24 e8          	mov    -0x18(%rsp),%eax
  401815:	69 c0 0c b4 00 00    	imul   $0xb40c,%eax,%eax
  40181b:	89 44 24 e8          	mov    %eax,-0x18(%rsp)
  40181f:	8b 44 24 e0          	mov    -0x20(%rsp),%eax
  401823:	69 c0 dd 83 00 00    	imul   $0x83dd,%eax,%eax
  401829:	89 44 24 e0          	mov    %eax,-0x20(%rsp)
  40182d:	8b 44 24 e4          	mov    -0x1c(%rsp),%eax
  401831:	69 c0 0d 2e 00 00    	imul   $0x2e0d,%eax,%eax
  401837:	89 44 24 e4          	mov    %eax,-0x1c(%rsp)
  40183b:	8b 44 24 e0          	mov    -0x20(%rsp),%eax
  40183f:	69 c0 8c e8 00 00    	imul   $0xe88c,%eax,%eax
  401845:	89 44 24 e0          	mov    %eax,-0x20(%rsp)
  401849:	8b 44 24 d4          	mov    -0x2c(%rsp),%eax
  40184d:	69 c0 6b ca 00 00    	imul   $0xca6b,%eax,%eax
  401853:	89 44 24 d4          	mov    %eax,-0x2c(%rsp)
  401857:	8b 44 24 d4          	mov    -0x2c(%rsp),%eax
  40185b:	69 c0 6b f7 00 00    	imul   $0xf76b,%eax,%eax
  401861:	89 44 24 d4          	mov    %eax,-0x2c(%rsp)
  401865:	8b 44 24 e0          	mov    -0x20(%rsp),%eax
  401869:	69 c0 61 45 00 00    	imul   $0x4561,%eax,%eax
  40186f:	89 44 24 e0          	mov    %eax,-0x20(%rsp)
  401873:	ba 00 00 00 00       	mov    $0x0,%edx
  401878:	b8 00 00 00 00       	mov    $0x0,%eax
  40187d:	83 fa 09             	cmp    $0x9,%edx
  401880:	77 0d                	ja     40188f <scramble+0x525>
  401882:	89 d1                	mov    %edx,%ecx
  401884:	8b 4c 8c c8          	mov    -0x38(%rsp,%rcx,4),%ecx
  401888:	01 c8                	add    %ecx,%eax
  40188a:	83 c2 01             	add    $0x1,%edx
  40188d:	eb ee                	jmp    40187d <scramble+0x513>
  40188f:	c3                   	retq   

0000000000401890 <getbuf>:
  401890:	48 83 ec 18          	sub    $0x18,%rsp
  401894:	48 89 e7             	mov    %rsp,%rdi
  401897:	e8 a3 03 00 00       	callq  401c3f <Gets>
  40189c:	b8 01 00 00 00       	mov    $0x1,%eax
  4018a1:	48 83 c4 18          	add    $0x18,%rsp
  4018a5:	c3                   	retq   

00000000004018a6 <touch1>:
  4018a6:	48 83 ec 08          	sub    $0x8,%rsp
  4018aa:	c7 05 68 3c 20 00 01 	movl   $0x1,0x203c68(%rip)        # 60551c <vlevel>
  4018b1:	00 00 00 
  4018b4:	bf 1c 33 40 00       	mov    $0x40331c,%edi
  4018b9:	e8 22 f4 ff ff       	callq  400ce0 <puts@plt>
  4018be:	bf 01 00 00 00       	mov    $0x1,%edi
  4018c3:	e8 c0 05 00 00       	callq  401e88 <validate>
  4018c8:	bf 00 00 00 00       	mov    $0x0,%edi
  4018cd:	e8 9e f5 ff ff       	callq  400e70 <exit@plt>

00000000004018d2 <touch2>:
  4018d2:	48 83 ec 08          	sub    $0x8,%rsp
  4018d6:	89 fa                	mov    %edi,%edx
  4018d8:	c7 05 3a 3c 20 00 02 	movl   $0x2,0x203c3a(%rip)        # 60551c <vlevel>
  4018df:	00 00 00 
  4018e2:	39 3d 3c 3c 20 00    	cmp    %edi,0x203c3c(%rip)        # 605524 <cookie>
  4018e8:	74 28                	je     401912 <touch2+0x40>
  4018ea:	be 68 33 40 00       	mov    $0x403368,%esi
  4018ef:	bf 01 00 00 00       	mov    $0x1,%edi
  4018f4:	b8 00 00 00 00       	mov    $0x0,%eax
  4018f9:	e8 22 f5 ff ff       	callq  400e20 <__printf_chk@plt>
  4018fe:	bf 02 00 00 00       	mov    $0x2,%edi
  401903:	e8 45 06 00 00       	callq  401f4d <fail>
  401908:	bf 00 00 00 00       	mov    $0x0,%edi
  40190d:	e8 5e f5 ff ff       	callq  400e70 <exit@plt>
  401912:	be 40 33 40 00       	mov    $0x403340,%esi
  401917:	bf 01 00 00 00       	mov    $0x1,%edi
  40191c:	b8 00 00 00 00       	mov    $0x0,%eax
  401921:	e8 fa f4 ff ff       	callq  400e20 <__printf_chk@plt>
  401926:	bf 02 00 00 00       	mov    $0x2,%edi
  40192b:	e8 58 05 00 00       	callq  401e88 <validate>
  401930:	eb d6                	jmp    401908 <touch2+0x36>

0000000000401932 <hexmatch>:
  401932:	41 55                	push   %r13
  401934:	41 54                	push   %r12
  401936:	55                   	push   %rbp
  401937:	53                   	push   %rbx
  401938:	48 81 ec 88 00 00 00 	sub    $0x88,%rsp
  40193f:	41 89 fc             	mov    %edi,%r12d
  401942:	48 89 f5             	mov    %rsi,%rbp
  401945:	bb 28 00 00 00       	mov    $0x28,%ebx
  40194a:	64 48 8b 03          	mov    %fs:(%rbx),%rax
  40194e:	48 89 44 24 78       	mov    %rax,0x78(%rsp)
  401953:	31 c0                	xor    %eax,%eax
  401955:	e8 86 f4 ff ff       	callq  400de0 <random@plt>
  40195a:	48 89 c1             	mov    %rax,%rcx
  40195d:	48 ba 0b d7 a3 70 3d 	movabs $0xa3d70a3d70a3d70b,%rdx
  401964:	0a d7 a3 
  401967:	48 f7 ea             	imul   %rdx
  40196a:	48 01 ca             	add    %rcx,%rdx
  40196d:	48 c1 fa 06          	sar    $0x6,%rdx
  401971:	48 89 c8             	mov    %rcx,%rax
  401974:	48 c1 f8 3f          	sar    $0x3f,%rax
  401978:	48 29 c2             	sub    %rax,%rdx
  40197b:	48 8d 04 92          	lea    (%rdx,%rdx,4),%rax
  40197f:	48 8d 14 80          	lea    (%rax,%rax,4),%rdx
  401983:	48 8d 04 95 00 00 00 	lea    0x0(,%rdx,4),%rax
  40198a:	00 
  40198b:	48 29 c1             	sub    %rax,%rcx
  40198e:	4c 8d 2c 0c          	lea    (%rsp,%rcx,1),%r13
  401992:	45 89 e0             	mov    %r12d,%r8d
  401995:	b9 39 33 40 00       	mov    $0x403339,%ecx
  40199a:	48 c7 c2 ff ff ff ff 	mov    $0xffffffffffffffff,%rdx
  4019a1:	be 01 00 00 00       	mov    $0x1,%esi
  4019a6:	4c 89 ef             	mov    %r13,%rdi
  4019a9:	b8 00 00 00 00       	mov    $0x0,%eax
  4019ae:	e8 ed f4 ff ff       	callq  400ea0 <__sprintf_chk@plt>
  4019b3:	ba 09 00 00 00       	mov    $0x9,%edx
  4019b8:	4c 89 ee             	mov    %r13,%rsi
  4019bb:	48 89 ef             	mov    %rbp,%rdi
  4019be:	e8 fd f2 ff ff       	callq  400cc0 <strncmp@plt>
  4019c3:	85 c0                	test   %eax,%eax
  4019c5:	0f 94 c0             	sete   %al
  4019c8:	48 8b 74 24 78       	mov    0x78(%rsp),%rsi
  4019cd:	64 48 33 33          	xor    %fs:(%rbx),%rsi
  4019d1:	75 11                	jne    4019e4 <hexmatch+0xb2>
  4019d3:	0f b6 c0             	movzbl %al,%eax
  4019d6:	48 81 c4 88 00 00 00 	add    $0x88,%rsp
  4019dd:	5b                   	pop    %rbx
  4019de:	5d                   	pop    %rbp
  4019df:	41 5c                	pop    %r12
  4019e1:	41 5d                	pop    %r13
  4019e3:	c3                   	retq   
  4019e4:	e8 17 f3 ff ff       	callq  400d00 <__stack_chk_fail@plt>

00000000004019e9 <touch3>:
  4019e9:	53                   	push   %rbx
  4019ea:	48 89 fb             	mov    %rdi,%rbx
  4019ed:	c7 05 25 3b 20 00 03 	movl   $0x3,0x203b25(%rip)        # 60551c <vlevel>
  4019f4:	00 00 00 
  4019f7:	48 89 fe             	mov    %rdi,%rsi
  4019fa:	8b 3d 24 3b 20 00    	mov    0x203b24(%rip),%edi        # 605524 <cookie>
  401a00:	e8 2d ff ff ff       	callq  401932 <hexmatch>
  401a05:	85 c0                	test   %eax,%eax
  401a07:	74 2b                	je     401a34 <touch3+0x4b>
  401a09:	48 89 da             	mov    %rbx,%rdx
  401a0c:	be 90 33 40 00       	mov    $0x403390,%esi
  401a11:	bf 01 00 00 00       	mov    $0x1,%edi
  401a16:	b8 00 00 00 00       	mov    $0x0,%eax
  401a1b:	e8 00 f4 ff ff       	callq  400e20 <__printf_chk@plt>
  401a20:	bf 03 00 00 00       	mov    $0x3,%edi
  401a25:	e8 5e 04 00 00       	callq  401e88 <validate>
  401a2a:	bf 00 00 00 00       	mov    $0x0,%edi
  401a2f:	e8 3c f4 ff ff       	callq  400e70 <exit@plt>
  401a34:	48 89 da             	mov    %rbx,%rdx
  401a37:	be b8 33 40 00       	mov    $0x4033b8,%esi
  401a3c:	bf 01 00 00 00       	mov    $0x1,%edi
  401a41:	b8 00 00 00 00       	mov    $0x0,%eax
  401a46:	e8 d5 f3 ff ff       	callq  400e20 <__printf_chk@plt>
  401a4b:	bf 03 00 00 00       	mov    $0x3,%edi
  401a50:	e8 f8 04 00 00       	callq  401f4d <fail>
  401a55:	eb d3                	jmp    401a2a <touch3+0x41>

0000000000401a57 <test>:
  401a57:	48 83 ec 08          	sub    $0x8,%rsp
  401a5b:	b8 00 00 00 00       	mov    $0x0,%eax
  401a60:	e8 2b fe ff ff       	callq  401890 <getbuf>
  401a65:	89 c2                	mov    %eax,%edx
  401a67:	be e0 33 40 00       	mov    $0x4033e0,%esi
  401a6c:	bf 01 00 00 00       	mov    $0x1,%edi
  401a71:	b8 00 00 00 00       	mov    $0x0,%eax
  401a76:	e8 a5 f3 ff ff       	callq  400e20 <__printf_chk@plt>
  401a7b:	48 83 c4 08          	add    $0x8,%rsp
  401a7f:	c3                   	retq   

0000000000401a80 <start_farm>:
  401a80:	b8 01 00 00 00       	mov    $0x1,%eax
  401a85:	c3                   	retq   

0000000000401a86 <getval_217>:
  401a86:	b8 65 48 c9 c7       	mov    $0xc7c94865,%eax
  401a8b:	c3                   	retq   

0000000000401a8c <setval_144>:
  401a8c:	c7 07 58 c3 3b 5d    	movl   $0x5d3bc358,(%rdi)
  401a92:	c3                   	retq   

0000000000401a93 <setval_123>:
  401a93:	c7 07 48 89 c7 c3    	movl   $0xc3c78948,(%rdi)
  401a99:	c3                   	retq   

0000000000401a9a <addval_493>:
  401a9a:	8d 87 7c e0 73 58    	lea    0x5873e07c(%rdi),%eax
  401aa0:	c3                   	retq   

0000000000401aa1 <addval_177>:
  401aa1:	8d 87 48 89 c7 c3    	lea    -0x3c3876b8(%rdi),%eax
  401aa7:	c3                   	retq   

0000000000401aa8 <addval_320>:
  401aa8:	8d 87 06 58 90 c2    	lea    -0x3d6fa7fa(%rdi),%eax
  401aae:	c3                   	retq   

0000000000401aaf <getval_157>:
  401aaf:	b8 7e 5d 58 92       	mov    $0x92585d7e,%eax
  401ab4:	c3                   	retq   

0000000000401ab5 <setval_341>:
  401ab5:	c7 07 48 89 c7 c1    	movl   $0xc1c78948,(%rdi)
  401abb:	c3                   	retq   

0000000000401abc <mid_farm>:
  401abc:	b8 01 00 00 00       	mov    $0x1,%eax
  401ac1:	c3                   	retq   

0000000000401ac2 <add_xy>:
  401ac2:	48 8d 04 37          	lea    (%rdi,%rsi,1),%rax
  401ac6:	c3                   	retq   

0000000000401ac7 <getval_183>:
  401ac7:	b8 8b ca 90 90       	mov    $0x9090ca8b,%eax
  401acc:	c3                   	retq   

0000000000401acd <addval_260>:
  401acd:	8d 87 89 ca 08 c0    	lea    -0x3ff73577(%rdi),%eax
  401ad3:	c3                   	retq   

0000000000401ad4 <addval_407>:
  401ad4:	8d 87 81 c1 90 90    	lea    -0x6f6f3e7f(%rdi),%eax
  401ada:	c3                   	retq   

0000000000401adb <getval_441>:
  401adb:	b8 10 81 c1 c3       	mov    $0xc3c18110,%eax
  401ae0:	c3                   	retq   

0000000000401ae1 <addval_362>:
  401ae1:	8d 87 89 d6 84 c0    	lea    -0x3f7b2977(%rdi),%eax
  401ae7:	c3                   	retq   

0000000000401ae8 <setval_430>:
  401ae8:	c7 07 48 89 e0 c3    	movl   $0xc3e08948,(%rdi)
  401aee:	c3                   	retq   

0000000000401aef <addval_403>:
  401aef:	8d 87 48 8b e0 c3    	lea    -0x3c1f74b8(%rdi),%eax
  401af5:	c3                   	retq   

0000000000401af6 <getval_357>:
  401af6:	b8 89 c1 48 c9       	mov    $0xc948c189,%eax
  401afb:	c3                   	retq   

0000000000401afc <setval_435>:
  401afc:	c7 07 89 c1 08 c0    	movl   $0xc008c189,(%rdi)
  401b02:	c3                   	retq   

0000000000401b03 <getval_149>:
  401b03:	b8 89 d6 60 c9       	mov    $0xc960d689,%eax
  401b08:	c3                   	retq   

0000000000401b09 <getval_120>:
  401b09:	b8 89 ca 78 db       	mov    $0xdb78ca89,%eax
  401b0e:	c3                   	retq   

0000000000401b0f <setval_205>:
  401b0f:	c7 07 8b ca c3 ce    	movl   $0xcec3ca8b,(%rdi)
  401b15:	c3                   	retq   

0000000000401b16 <addval_155>:
  401b16:	8d 87 89 ca 91 c3    	lea    -0x3c6e3577(%rdi),%eax
  401b1c:	c3                   	retq   

0000000000401b1d <setval_108>:
  401b1d:	c7 07 89 d6 20 c0    	movl   $0xc020d689,(%rdi)
  401b23:	c3                   	retq   

0000000000401b24 <setval_371>:
  401b24:	c7 07 89 d6 94 90    	movl   $0x9094d689,(%rdi)
  401b2a:	c3                   	retq   

0000000000401b2b <getval_442>:
  401b2b:	b8 48 8d e0 90       	mov    $0x90e08d48,%eax
  401b30:	c3                   	retq   

0000000000401b31 <setval_147>:
  401b31:	c7 07 8a 4a 89 e0    	movl   $0xe0894a8a,(%rdi)
  401b37:	c3                   	retq   

0000000000401b38 <setval_156>:
  401b38:	c7 07 99 c1 08 d2    	movl   $0xd208c199,(%rdi)
  401b3e:	c3                   	retq   

0000000000401b3f <setval_472>:
  401b3f:	c7 07 89 d6 92 c3    	movl   $0xc392d689,(%rdi)
  401b45:	c3                   	retq   

0000000000401b46 <getval_168>:
  401b46:	b8 81 c1 38 d2       	mov    $0xd238c181,%eax
  401b4b:	c3                   	retq   

0000000000401b4c <addval_378>:
  401b4c:	8d 87 08 89 e0 c3    	lea    -0x3c1f76f8(%rdi),%eax
  401b52:	c3                   	retq   

0000000000401b53 <addval_384>:
  401b53:	8d 87 48 89 e0 c3    	lea    -0x3c1f76b8(%rdi),%eax
  401b59:	c3                   	retq   

0000000000401b5a <getval_106>:
  401b5a:	b8 cf 89 d6 92       	mov    $0x92d689cf,%eax
  401b5f:	c3                   	retq   

0000000000401b60 <getval_405>:
  401b60:	b8 89 c1 18 db       	mov    $0xdb18c189,%eax
  401b65:	c3                   	retq   

0000000000401b66 <addval_224>:
  401b66:	8d 87 89 ca 00 d2    	lea    -0x2dff3577(%rdi),%eax
  401b6c:	c3                   	retq   

0000000000401b6d <addval_487>:
  401b6d:	8d 87 48 a9 e0 c3    	lea    -0x3c1f56b8(%rdi),%eax
  401b73:	c3                   	retq   

0000000000401b74 <getval_319>:
  401b74:	b8 09 d6 38 d2       	mov    $0xd238d609,%eax
  401b79:	c3                   	retq   

0000000000401b7a <getval_374>:
  401b7a:	b8 8d d6 84 c0       	mov    $0xc084d68d,%eax
  401b7f:	c3                   	retq   

0000000000401b80 <getval_163>:
  401b80:	b8 89 c1 c3 7f       	mov    $0x7fc3c189,%eax
  401b85:	c3                   	retq   

0000000000401b86 <setval_443>:
  401b86:	c7 07 40 89 e0 c3    	movl   $0xc3e08940,(%rdi)
  401b8c:	c3                   	retq   

0000000000401b8d <getval_480>:
  401b8d:	b8 8d ca 08 db       	mov    $0xdb08ca8d,%eax
  401b92:	c3                   	retq   

0000000000401b93 <setval_450>:
  401b93:	c7 07 89 ca 08 d2    	movl   $0xd208ca89,(%rdi)
  401b99:	c3                   	retq   

0000000000401b9a <end_farm>:
  401b9a:	b8 01 00 00 00       	mov    $0x1,%eax
  401b9f:	c3                   	retq   

0000000000401ba0 <save_char>:
  401ba0:	8b 05 9e 45 20 00    	mov    0x20459e(%rip),%eax        # 606144 <gets_cnt>
  401ba6:	3d ff 03 00 00       	cmp    $0x3ff,%eax
  401bab:	7f 49                	jg     401bf6 <save_char+0x56>
  401bad:	89 f9                	mov    %edi,%ecx
  401baf:	c0 e9 04             	shr    $0x4,%cl
  401bb2:	8d 14 40             	lea    (%rax,%rax,2),%edx
  401bb5:	83 e1 0f             	and    $0xf,%ecx
  401bb8:	0f b6 b1 00 37 40 00 	movzbl 0x403700(%rcx),%esi
  401bbf:	48 63 ca             	movslq %edx,%rcx
  401bc2:	40 88 b1 40 55 60 00 	mov    %sil,0x605540(%rcx)
  401bc9:	8d 4a 01             	lea    0x1(%rdx),%ecx
  401bcc:	83 e7 0f             	and    $0xf,%edi
  401bcf:	0f b6 b7 00 37 40 00 	movzbl 0x403700(%rdi),%esi
  401bd6:	48 63 c9             	movslq %ecx,%rcx
  401bd9:	40 88 b1 40 55 60 00 	mov    %sil,0x605540(%rcx)
  401be0:	83 c2 02             	add    $0x2,%edx
  401be3:	48 63 d2             	movslq %edx,%rdx
  401be6:	c6 82 40 55 60 00 20 	movb   $0x20,0x605540(%rdx)
  401bed:	83 c0 01             	add    $0x1,%eax
  401bf0:	89 05 4e 45 20 00    	mov    %eax,0x20454e(%rip)        # 606144 <gets_cnt>
  401bf6:	c3                   	retq   

0000000000401bf7 <save_term>:
  401bf7:	8b 05 47 45 20 00    	mov    0x204547(%rip),%eax        # 606144 <gets_cnt>
  401bfd:	8d 04 40             	lea    (%rax,%rax,2),%eax
  401c00:	48 98                	cltq   
  401c02:	c6 80 40 55 60 00 00 	movb   $0x0,0x605540(%rax)
  401c09:	c3                   	retq   

0000000000401c0a <check_fail>:
  401c0a:	48 83 ec 08          	sub    $0x8,%rsp
  401c0e:	0f be 15 33 45 20 00 	movsbl 0x204533(%rip),%edx        # 606148 <target_prefix>
  401c15:	41 b8 40 55 60 00    	mov    $0x605540,%r8d
  401c1b:	8b 0d f7 38 20 00    	mov    0x2038f7(%rip),%ecx        # 605518 <check_level>
  401c21:	be 03 34 40 00       	mov    $0x403403,%esi
  401c26:	bf 01 00 00 00       	mov    $0x1,%edi
  401c2b:	b8 00 00 00 00       	mov    $0x0,%eax
  401c30:	e8 eb f1 ff ff       	callq  400e20 <__printf_chk@plt>
  401c35:	bf 01 00 00 00       	mov    $0x1,%edi
  401c3a:	e8 31 f2 ff ff       	callq  400e70 <exit@plt>

0000000000401c3f <Gets>:
  401c3f:	41 54                	push   %r12
  401c41:	55                   	push   %rbp
  401c42:	53                   	push   %rbx
  401c43:	49 89 fc             	mov    %rdi,%r12
  401c46:	c7 05 f4 44 20 00 00 	movl   $0x0,0x2044f4(%rip)        # 606144 <gets_cnt>
  401c4d:	00 00 00 
  401c50:	48 89 fb             	mov    %rdi,%rbx
  401c53:	48 8b 3d b6 38 20 00 	mov    0x2038b6(%rip),%rdi        # 605510 <infile>
  401c5a:	e8 91 f1 ff ff       	callq  400df0 <_IO_getc@plt>
  401c5f:	83 f8 ff             	cmp    $0xffffffff,%eax
  401c62:	74 18                	je     401c7c <Gets+0x3d>
  401c64:	83 f8 0a             	cmp    $0xa,%eax
  401c67:	74 13                	je     401c7c <Gets+0x3d>
  401c69:	48 8d 6b 01          	lea    0x1(%rbx),%rbp
  401c6d:	88 03                	mov    %al,(%rbx)
  401c6f:	0f b6 f8             	movzbl %al,%edi
  401c72:	e8 29 ff ff ff       	callq  401ba0 <save_char>
  401c77:	48 89 eb             	mov    %rbp,%rbx
  401c7a:	eb d7                	jmp    401c53 <Gets+0x14>
  401c7c:	c6 03 00             	movb   $0x0,(%rbx)
  401c7f:	b8 00 00 00 00       	mov    $0x0,%eax
  401c84:	e8 6e ff ff ff       	callq  401bf7 <save_term>
  401c89:	4c 89 e0             	mov    %r12,%rax
  401c8c:	5b                   	pop    %rbx
  401c8d:	5d                   	pop    %rbp
  401c8e:	41 5c                	pop    %r12
  401c90:	c3                   	retq   

0000000000401c91 <notify_server>:
  401c91:	55                   	push   %rbp
  401c92:	53                   	push   %rbx
  401c93:	48 81 ec 18 40 00 00 	sub    $0x4018,%rsp
  401c9a:	64 48 8b 04 25 28 00 	mov    %fs:0x28,%rax
  401ca1:	00 00 
  401ca3:	48 89 84 24 08 40 00 	mov    %rax,0x4008(%rsp)
  401caa:	00 
  401cab:	31 c0                	xor    %eax,%eax
  401cad:	83 3d 74 38 20 00 00 	cmpl   $0x0,0x203874(%rip)        # 605528 <is_checker>
  401cb4:	0f 85 24 01 00 00    	jne    401dde <notify_server+0x14d>
  401cba:	89 fb                	mov    %edi,%ebx
  401cbc:	81 3d 7e 44 20 00 9c 	cmpl   $0x1f9c,0x20447e(%rip)        # 606144 <gets_cnt>
  401cc3:	1f 00 00 
  401cc6:	0f 8f b5 00 00 00    	jg     401d81 <notify_server+0xf0>
  401ccc:	0f be 05 75 44 20 00 	movsbl 0x204475(%rip),%eax        # 606148 <target_prefix>
  401cd3:	83 3d ce 37 20 00 00 	cmpl   $0x0,0x2037ce(%rip)        # 6054a8 <notify>
  401cda:	0f 84 ba 00 00 00    	je     401d9a <notify_server+0x109>
  401ce0:	8b 15 3a 38 20 00    	mov    0x20383a(%rip),%edx        # 605520 <authkey>
  401ce6:	85 db                	test   %ebx,%ebx
  401ce8:	0f 84 b6 00 00 00    	je     401da4 <notify_server+0x113>
  401cee:	bd 1e 34 40 00       	mov    $0x40341e,%ebp
  401cf3:	68 40 55 60 00       	pushq  $0x605540
  401cf8:	56                   	push   %rsi
  401cf9:	50                   	push   %rax
  401cfa:	52                   	push   %rdx
  401cfb:	49 89 e9             	mov    %rbp,%r9
  401cfe:	44 8b 05 63 34 20 00 	mov    0x203463(%rip),%r8d        # 605168 <target_id>
  401d05:	b9 23 34 40 00       	mov    $0x403423,%ecx
  401d0a:	ba 00 20 00 00       	mov    $0x2000,%edx
  401d0f:	be 01 00 00 00       	mov    $0x1,%esi
  401d14:	48 8d 7c 24 20       	lea    0x20(%rsp),%rdi
  401d19:	b8 00 00 00 00       	mov    $0x0,%eax
  401d1e:	e8 7d f1 ff ff       	callq  400ea0 <__sprintf_chk@plt>
  401d23:	48 83 c4 20          	add    $0x20,%rsp
  401d27:	83 3d 7a 37 20 00 00 	cmpl   $0x0,0x20377a(%rip)        # 6054a8 <notify>
  401d2e:	0f 84 cb 00 00 00    	je     401dff <notify_server+0x16e>
  401d34:	85 db                	test   %ebx,%ebx
  401d36:	0f 84 98 00 00 00    	je     401dd4 <notify_server+0x143>
  401d3c:	4c 8d 8c 24 00 20 00 	lea    0x2000(%rsp),%r9
  401d43:	00 
  401d44:	41 b8 00 00 00 00    	mov    $0x0,%r8d
  401d4a:	48 89 e1             	mov    %rsp,%rcx
  401d4d:	48 8b 15 1c 34 20 00 	mov    0x20341c(%rip),%rdx        # 605170 <lab>
  401d54:	48 8b 35 1d 34 20 00 	mov    0x20341d(%rip),%rsi        # 605178 <course>
  401d5b:	48 8b 3d fe 33 20 00 	mov    0x2033fe(%rip),%rdi        # 605160 <user_id>
  401d62:	e8 30 11 00 00       	callq  402e97 <driver_post>
  401d67:	85 c0                	test   %eax,%eax
  401d69:	78 43                	js     401dae <notify_server+0x11d>
  401d6b:	bf 68 35 40 00       	mov    $0x403568,%edi
  401d70:	e8 6b ef ff ff       	callq  400ce0 <puts@plt>
  401d75:	bf 4b 34 40 00       	mov    $0x40344b,%edi
  401d7a:	e8 61 ef ff ff       	callq  400ce0 <puts@plt>
  401d7f:	eb 5d                	jmp    401dde <notify_server+0x14d>
  401d81:	be 38 35 40 00       	mov    $0x403538,%esi
  401d86:	bf 01 00 00 00       	mov    $0x1,%edi
  401d8b:	e8 90 f0 ff ff       	callq  400e20 <__printf_chk@plt>
  401d90:	bf 01 00 00 00       	mov    $0x1,%edi
  401d95:	e8 d6 f0 ff ff       	callq  400e70 <exit@plt>
  401d9a:	ba ff ff ff ff       	mov    $0xffffffff,%edx
  401d9f:	e9 42 ff ff ff       	jmpq   401ce6 <notify_server+0x55>
  401da4:	bd 19 34 40 00       	mov    $0x403419,%ebp
  401da9:	e9 45 ff ff ff       	jmpq   401cf3 <notify_server+0x62>
  401dae:	48 8d 94 24 00 20 00 	lea    0x2000(%rsp),%rdx
  401db5:	00 
  401db6:	be 3f 34 40 00       	mov    $0x40343f,%esi
  401dbb:	bf 01 00 00 00       	mov    $0x1,%edi
  401dc0:	b8 00 00 00 00       	mov    $0x0,%eax
  401dc5:	e8 56 f0 ff ff       	callq  400e20 <__printf_chk@plt>
  401dca:	bf 01 00 00 00       	mov    $0x1,%edi
  401dcf:	e8 9c f0 ff ff       	callq  400e70 <exit@plt>
  401dd4:	bf 55 34 40 00       	mov    $0x403455,%edi
  401dd9:	e8 02 ef ff ff       	callq  400ce0 <puts@plt>
  401dde:	48 8b 84 24 08 40 00 	mov    0x4008(%rsp),%rax
  401de5:	00 
  401de6:	64 48 33 04 25 28 00 	xor    %fs:0x28,%rax
  401ded:	00 00 
  401def:	0f 85 8e 00 00 00    	jne    401e83 <notify_server+0x1f2>
  401df5:	48 81 c4 18 40 00 00 	add    $0x4018,%rsp
  401dfc:	5b                   	pop    %rbx
  401dfd:	5d                   	pop    %rbp
  401dfe:	c3                   	retq   
  401dff:	48 89 ea             	mov    %rbp,%rdx
  401e02:	be a0 35 40 00       	mov    $0x4035a0,%esi
  401e07:	bf 01 00 00 00       	mov    $0x1,%edi
  401e0c:	b8 00 00 00 00       	mov    $0x0,%eax
  401e11:	e8 0a f0 ff ff       	callq  400e20 <__printf_chk@plt>
  401e16:	48 8b 15 43 33 20 00 	mov    0x203343(%rip),%rdx        # 605160 <user_id>
  401e1d:	be 5c 34 40 00       	mov    $0x40345c,%esi
  401e22:	bf 01 00 00 00       	mov    $0x1,%edi
  401e27:	b8 00 00 00 00       	mov    $0x0,%eax
  401e2c:	e8 ef ef ff ff       	callq  400e20 <__printf_chk@plt>
  401e31:	48 8b 15 40 33 20 00 	mov    0x203340(%rip),%rdx        # 605178 <course>
  401e38:	be 69 34 40 00       	mov    $0x403469,%esi
  401e3d:	bf 01 00 00 00       	mov    $0x1,%edi
  401e42:	b8 00 00 00 00       	mov    $0x0,%eax
  401e47:	e8 d4 ef ff ff       	callq  400e20 <__printf_chk@plt>
  401e4c:	48 8b 15 1d 33 20 00 	mov    0x20331d(%rip),%rdx        # 605170 <lab>
  401e53:	be 75 34 40 00       	mov    $0x403475,%esi
  401e58:	bf 01 00 00 00       	mov    $0x1,%edi
  401e5d:	b8 00 00 00 00       	mov    $0x0,%eax
  401e62:	e8 b9 ef ff ff       	callq  400e20 <__printf_chk@plt>
  401e67:	48 89 e2             	mov    %rsp,%rdx
  401e6a:	be 7e 34 40 00       	mov    $0x40347e,%esi
  401e6f:	bf 01 00 00 00       	mov    $0x1,%edi
  401e74:	b8 00 00 00 00       	mov    $0x0,%eax
  401e79:	e8 a2 ef ff ff       	callq  400e20 <__printf_chk@plt>
  401e7e:	e9 5b ff ff ff       	jmpq   401dde <notify_server+0x14d>
  401e83:	e8 78 ee ff ff       	callq  400d00 <__stack_chk_fail@plt>

0000000000401e88 <validate>:
  401e88:	53                   	push   %rbx
  401e89:	89 fb                	mov    %edi,%ebx
  401e8b:	83 3d 96 36 20 00 00 	cmpl   $0x0,0x203696(%rip)        # 605528 <is_checker>
  401e92:	74 6b                	je     401eff <validate+0x77>
  401e94:	39 3d 82 36 20 00    	cmp    %edi,0x203682(%rip)        # 60551c <vlevel>
  401e9a:	75 2f                	jne    401ecb <validate+0x43>
  401e9c:	8b 15 76 36 20 00    	mov    0x203676(%rip),%edx        # 605518 <check_level>
  401ea2:	39 fa                	cmp    %edi,%edx
  401ea4:	75 39                	jne    401edf <validate+0x57>
  401ea6:	0f be 15 9b 42 20 00 	movsbl 0x20429b(%rip),%edx        # 606148 <target_prefix>
  401ead:	41 b8 40 55 60 00    	mov    $0x605540,%r8d
  401eb3:	89 f9                	mov    %edi,%ecx
  401eb5:	be a8 34 40 00       	mov    $0x4034a8,%esi
  401eba:	bf 01 00 00 00       	mov    $0x1,%edi
  401ebf:	b8 00 00 00 00       	mov    $0x0,%eax
  401ec4:	e8 57 ef ff ff       	callq  400e20 <__printf_chk@plt>
  401ec9:	5b                   	pop    %rbx
  401eca:	c3                   	retq   
  401ecb:	bf 8a 34 40 00       	mov    $0x40348a,%edi
  401ed0:	e8 0b ee ff ff       	callq  400ce0 <puts@plt>
  401ed5:	b8 00 00 00 00       	mov    $0x0,%eax
  401eda:	e8 2b fd ff ff       	callq  401c0a <check_fail>
  401edf:	89 f9                	mov    %edi,%ecx
  401ee1:	be c8 35 40 00       	mov    $0x4035c8,%esi
  401ee6:	bf 01 00 00 00       	mov    $0x1,%edi
  401eeb:	b8 00 00 00 00       	mov    $0x0,%eax
  401ef0:	e8 2b ef ff ff       	callq  400e20 <__printf_chk@plt>
  401ef5:	b8 00 00 00 00       	mov    $0x0,%eax
  401efa:	e8 0b fd ff ff       	callq  401c0a <check_fail>
  401eff:	39 3d 17 36 20 00    	cmp    %edi,0x203617(%rip)        # 60551c <vlevel>
  401f05:	74 18                	je     401f1f <validate+0x97>
  401f07:	bf 8a 34 40 00       	mov    $0x40348a,%edi
  401f0c:	e8 cf ed ff ff       	callq  400ce0 <puts@plt>
  401f11:	89 de                	mov    %ebx,%esi
  401f13:	bf 00 00 00 00       	mov    $0x0,%edi
  401f18:	e8 74 fd ff ff       	callq  401c91 <notify_server>
  401f1d:	eb aa                	jmp    401ec9 <validate+0x41>
  401f1f:	0f be 0d 22 42 20 00 	movsbl 0x204222(%rip),%ecx        # 606148 <target_prefix>
  401f26:	89 fa                	mov    %edi,%edx
  401f28:	be f0 35 40 00       	mov    $0x4035f0,%esi
  401f2d:	bf 01 00 00 00       	mov    $0x1,%edi
  401f32:	b8 00 00 00 00       	mov    $0x0,%eax
  401f37:	e8 e4 ee ff ff       	callq  400e20 <__printf_chk@plt>
  401f3c:	89 de                	mov    %ebx,%esi
  401f3e:	bf 01 00 00 00       	mov    $0x1,%edi
  401f43:	e8 49 fd ff ff       	callq  401c91 <notify_server>
  401f48:	e9 7c ff ff ff       	jmpq   401ec9 <validate+0x41>

0000000000401f4d <fail>:
  401f4d:	48 83 ec 08          	sub    $0x8,%rsp
  401f51:	83 3d d0 35 20 00 00 	cmpl   $0x0,0x2035d0(%rip)        # 605528 <is_checker>
  401f58:	75 11                	jne    401f6b <fail+0x1e>
  401f5a:	89 fe                	mov    %edi,%esi
  401f5c:	bf 00 00 00 00       	mov    $0x0,%edi
  401f61:	e8 2b fd ff ff       	callq  401c91 <notify_server>
  401f66:	48 83 c4 08          	add    $0x8,%rsp
  401f6a:	c3                   	retq   
  401f6b:	b8 00 00 00 00       	mov    $0x0,%eax
  401f70:	e8 95 fc ff ff       	callq  401c0a <check_fail>

0000000000401f75 <bushandler>:
  401f75:	48 83 ec 08          	sub    $0x8,%rsp
  401f79:	83 3d a8 35 20 00 00 	cmpl   $0x0,0x2035a8(%rip)        # 605528 <is_checker>
  401f80:	74 14                	je     401f96 <bushandler+0x21>
  401f82:	bf bd 34 40 00       	mov    $0x4034bd,%edi
  401f87:	e8 54 ed ff ff       	callq  400ce0 <puts@plt>
  401f8c:	b8 00 00 00 00       	mov    $0x0,%eax
  401f91:	e8 74 fc ff ff       	callq  401c0a <check_fail>
  401f96:	bf 28 36 40 00       	mov    $0x403628,%edi
  401f9b:	e8 40 ed ff ff       	callq  400ce0 <puts@plt>
  401fa0:	bf c7 34 40 00       	mov    $0x4034c7,%edi
  401fa5:	e8 36 ed ff ff       	callq  400ce0 <puts@plt>
  401faa:	be 00 00 00 00       	mov    $0x0,%esi
  401faf:	bf 00 00 00 00       	mov    $0x0,%edi
  401fb4:	e8 d8 fc ff ff       	callq  401c91 <notify_server>
  401fb9:	bf 01 00 00 00       	mov    $0x1,%edi
  401fbe:	e8 ad ee ff ff       	callq  400e70 <exit@plt>

0000000000401fc3 <seghandler>:
  401fc3:	48 83 ec 08          	sub    $0x8,%rsp
  401fc7:	83 3d 5a 35 20 00 00 	cmpl   $0x0,0x20355a(%rip)        # 605528 <is_checker>
  401fce:	74 14                	je     401fe4 <seghandler+0x21>
  401fd0:	bf dd 34 40 00       	mov    $0x4034dd,%edi
  401fd5:	e8 06 ed ff ff       	callq  400ce0 <puts@plt>
  401fda:	b8 00 00 00 00       	mov    $0x0,%eax
  401fdf:	e8 26 fc ff ff       	callq  401c0a <check_fail>
  401fe4:	bf 48 36 40 00       	mov    $0x403648,%edi
  401fe9:	e8 f2 ec ff ff       	callq  400ce0 <puts@plt>
  401fee:	bf c7 34 40 00       	mov    $0x4034c7,%edi
  401ff3:	e8 e8 ec ff ff       	callq  400ce0 <puts@plt>
  401ff8:	be 00 00 00 00       	mov    $0x0,%esi
  401ffd:	bf 00 00 00 00       	mov    $0x0,%edi
  402002:	e8 8a fc ff ff       	callq  401c91 <notify_server>
  402007:	bf 01 00 00 00       	mov    $0x1,%edi
  40200c:	e8 5f ee ff ff       	callq  400e70 <exit@plt>

0000000000402011 <illegalhandler>:
  402011:	48 83 ec 08          	sub    $0x8,%rsp
  402015:	83 3d 0c 35 20 00 00 	cmpl   $0x0,0x20350c(%rip)        # 605528 <is_checker>
  40201c:	74 14                	je     402032 <illegalhandler+0x21>
  40201e:	bf f0 34 40 00       	mov    $0x4034f0,%edi
  402023:	e8 b8 ec ff ff       	callq  400ce0 <puts@plt>
  402028:	b8 00 00 00 00       	mov    $0x0,%eax
  40202d:	e8 d8 fb ff ff       	callq  401c0a <check_fail>
  402032:	bf 70 36 40 00       	mov    $0x403670,%edi
  402037:	e8 a4 ec ff ff       	callq  400ce0 <puts@plt>
  40203c:	bf c7 34 40 00       	mov    $0x4034c7,%edi
  402041:	e8 9a ec ff ff       	callq  400ce0 <puts@plt>
  402046:	be 00 00 00 00       	mov    $0x0,%esi
  40204b:	bf 00 00 00 00       	mov    $0x0,%edi
  402050:	e8 3c fc ff ff       	callq  401c91 <notify_server>
  402055:	bf 01 00 00 00       	mov    $0x1,%edi
  40205a:	e8 11 ee ff ff       	callq  400e70 <exit@plt>

000000000040205f <sigalrmhandler>:
  40205f:	48 83 ec 08          	sub    $0x8,%rsp
  402063:	83 3d be 34 20 00 00 	cmpl   $0x0,0x2034be(%rip)        # 605528 <is_checker>
  40206a:	74 14                	je     402080 <sigalrmhandler+0x21>
  40206c:	bf 04 35 40 00       	mov    $0x403504,%edi
  402071:	e8 6a ec ff ff       	callq  400ce0 <puts@plt>
  402076:	b8 00 00 00 00       	mov    $0x0,%eax
  40207b:	e8 8a fb ff ff       	callq  401c0a <check_fail>
  402080:	ba 05 00 00 00       	mov    $0x5,%edx
  402085:	be a0 36 40 00       	mov    $0x4036a0,%esi
  40208a:	bf 01 00 00 00       	mov    $0x1,%edi
  40208f:	b8 00 00 00 00       	mov    $0x0,%eax
  402094:	e8 87 ed ff ff       	callq  400e20 <__printf_chk@plt>
  402099:	be 00 00 00 00       	mov    $0x0,%esi
  40209e:	bf 00 00 00 00       	mov    $0x0,%edi
  4020a3:	e8 e9 fb ff ff       	callq  401c91 <notify_server>
  4020a8:	bf 01 00 00 00       	mov    $0x1,%edi
  4020ad:	e8 be ed ff ff       	callq  400e70 <exit@plt>

00000000004020b2 <launch>:
  4020b2:	55                   	push   %rbp
  4020b3:	48 89 e5             	mov    %rsp,%rbp
  4020b6:	48 83 ec 10          	sub    $0x10,%rsp
  4020ba:	48 89 fa             	mov    %rdi,%rdx
  4020bd:	64 48 8b 04 25 28 00 	mov    %fs:0x28,%rax
  4020c4:	00 00 
  4020c6:	48 89 45 f8          	mov    %rax,-0x8(%rbp)
  4020ca:	31 c0                	xor    %eax,%eax
  4020cc:	48 8d 47 17          	lea    0x17(%rdi),%rax
  4020d0:	48 83 e0 f0          	and    $0xfffffffffffffff0,%rax
  4020d4:	48 29 c4             	sub    %rax,%rsp
  4020d7:	48 8d 7c 24 0f       	lea    0xf(%rsp),%rdi
  4020dc:	48 83 e7 f0          	and    $0xfffffffffffffff0,%rdi
  4020e0:	be f4 00 00 00       	mov    $0xf4,%esi
  4020e5:	e8 36 ec ff ff       	callq  400d20 <memset@plt>
  4020ea:	48 8b 05 cf 33 20 00 	mov    0x2033cf(%rip),%rax        # 6054c0 <stdin@@GLIBC_2.2.5>
  4020f1:	48 39 05 18 34 20 00 	cmp    %rax,0x203418(%rip)        # 605510 <infile>
  4020f8:	74 38                	je     402132 <launch+0x80>
  4020fa:	c7 05 18 34 20 00 00 	movl   $0x0,0x203418(%rip)        # 60551c <vlevel>
  402101:	00 00 00 
  402104:	b8 00 00 00 00       	mov    $0x0,%eax
  402109:	e8 49 f9 ff ff       	callq  401a57 <test>
  40210e:	83 3d 13 34 20 00 00 	cmpl   $0x0,0x203413(%rip)        # 605528 <is_checker>
  402115:	75 31                	jne    402148 <launch+0x96>
  402117:	bf 24 35 40 00       	mov    $0x403524,%edi
  40211c:	e8 bf eb ff ff       	callq  400ce0 <puts@plt>
  402121:	48 8b 45 f8          	mov    -0x8(%rbp),%rax
  402125:	64 48 33 04 25 28 00 	xor    %fs:0x28,%rax
  40212c:	00 00 
  40212e:	75 2c                	jne    40215c <launch+0xaa>
  402130:	c9                   	leaveq 
  402131:	c3                   	retq   
  402132:	be 0c 35 40 00       	mov    $0x40350c,%esi
  402137:	bf 01 00 00 00       	mov    $0x1,%edi
  40213c:	b8 00 00 00 00       	mov    $0x0,%eax
  402141:	e8 da ec ff ff       	callq  400e20 <__printf_chk@plt>
  402146:	eb b2                	jmp    4020fa <launch+0x48>
  402148:	bf 19 35 40 00       	mov    $0x403519,%edi
  40214d:	e8 8e eb ff ff       	callq  400ce0 <puts@plt>
  402152:	b8 00 00 00 00       	mov    $0x0,%eax
  402157:	e8 ae fa ff ff       	callq  401c0a <check_fail>
  40215c:	e8 9f eb ff ff       	callq  400d00 <__stack_chk_fail@plt>

0000000000402161 <stable_launch>:
  402161:	53                   	push   %rbx
  402162:	48 89 3d 9f 33 20 00 	mov    %rdi,0x20339f(%rip)        # 605508 <global_offset>
  402169:	41 b9 00 00 00 00    	mov    $0x0,%r9d
  40216f:	41 b8 00 00 00 00    	mov    $0x0,%r8d
  402175:	b9 32 01 00 00       	mov    $0x132,%ecx
  40217a:	ba 07 00 00 00       	mov    $0x7,%edx
  40217f:	be 00 00 10 00       	mov    $0x100000,%esi
  402184:	bf 00 60 58 55       	mov    $0x55586000,%edi
  402189:	e8 82 eb ff ff       	callq  400d10 <mmap@plt>
  40218e:	48 89 c3             	mov    %rax,%rbx
  402191:	48 3d 00 60 58 55    	cmp    $0x55586000,%rax
  402197:	75 43                	jne    4021dc <stable_launch+0x7b>
  402199:	48 8d 90 f8 ff 0f 00 	lea    0xffff8(%rax),%rdx
  4021a0:	48 89 15 a9 3f 20 00 	mov    %rdx,0x203fa9(%rip)        # 606150 <stack_top>
  4021a7:	48 89 e0             	mov    %rsp,%rax
  4021aa:	48 89 d4             	mov    %rdx,%rsp
  4021ad:	48 89 c2             	mov    %rax,%rdx
  4021b0:	48 89 15 49 33 20 00 	mov    %rdx,0x203349(%rip)        # 605500 <global_save_stack>
  4021b7:	48 8b 3d 4a 33 20 00 	mov    0x20334a(%rip),%rdi        # 605508 <global_offset>
  4021be:	e8 ef fe ff ff       	callq  4020b2 <launch>
  4021c3:	48 8b 05 36 33 20 00 	mov    0x203336(%rip),%rax        # 605500 <global_save_stack>
  4021ca:	48 89 c4             	mov    %rax,%rsp
  4021cd:	be 00 00 10 00       	mov    $0x100000,%esi
  4021d2:	48 89 df             	mov    %rbx,%rdi
  4021d5:	e8 36 ec ff ff       	callq  400e10 <munmap@plt>
  4021da:	5b                   	pop    %rbx
  4021db:	c3                   	retq   
  4021dc:	be 00 00 10 00       	mov    $0x100000,%esi
  4021e1:	48 89 c7             	mov    %rax,%rdi
  4021e4:	e8 27 ec ff ff       	callq  400e10 <munmap@plt>
  4021e9:	b9 00 60 58 55       	mov    $0x55586000,%ecx
  4021ee:	ba d8 36 40 00       	mov    $0x4036d8,%edx
  4021f3:	be 01 00 00 00       	mov    $0x1,%esi
  4021f8:	48 8b 3d e9 32 20 00 	mov    0x2032e9(%rip),%rdi        # 6054e8 <stderr@@GLIBC_2.2.5>
  4021ff:	b8 00 00 00 00       	mov    $0x0,%eax
  402204:	e8 87 ec ff ff       	callq  400e90 <__fprintf_chk@plt>
  402209:	bf 01 00 00 00       	mov    $0x1,%edi
  40220e:	e8 5d ec ff ff       	callq  400e70 <exit@plt>

0000000000402213 <rio_readinitb>:
  402213:	89 37                	mov    %esi,(%rdi)
  402215:	c7 47 04 00 00 00 00 	movl   $0x0,0x4(%rdi)
  40221c:	48 8d 47 10          	lea    0x10(%rdi),%rax
  402220:	48 89 47 08          	mov    %rax,0x8(%rdi)
  402224:	c3                   	retq   

0000000000402225 <sigalrm_handler>:
  402225:	48 83 ec 08          	sub    $0x8,%rsp
  402229:	b9 00 00 00 00       	mov    $0x0,%ecx
  40222e:	ba 10 37 40 00       	mov    $0x403710,%edx
  402233:	be 01 00 00 00       	mov    $0x1,%esi
  402238:	48 8b 3d a9 32 20 00 	mov    0x2032a9(%rip),%rdi        # 6054e8 <stderr@@GLIBC_2.2.5>
  40223f:	b8 00 00 00 00       	mov    $0x0,%eax
  402244:	e8 47 ec ff ff       	callq  400e90 <__fprintf_chk@plt>
  402249:	bf 01 00 00 00       	mov    $0x1,%edi
  40224e:	e8 1d ec ff ff       	callq  400e70 <exit@plt>

0000000000402253 <rio_writen>:
  402253:	41 55                	push   %r13
  402255:	41 54                	push   %r12
  402257:	55                   	push   %rbp
  402258:	53                   	push   %rbx
  402259:	48 83 ec 08          	sub    $0x8,%rsp
  40225d:	41 89 fc             	mov    %edi,%r12d
  402260:	48 89 f5             	mov    %rsi,%rbp
  402263:	49 89 d5             	mov    %rdx,%r13
  402266:	48 89 d3             	mov    %rdx,%rbx
  402269:	eb 06                	jmp    402271 <rio_writen+0x1e>
  40226b:	48 29 c3             	sub    %rax,%rbx
  40226e:	48 01 c5             	add    %rax,%rbp
  402271:	48 85 db             	test   %rbx,%rbx
  402274:	74 24                	je     40229a <rio_writen+0x47>
  402276:	48 89 da             	mov    %rbx,%rdx
  402279:	48 89 ee             	mov    %rbp,%rsi
  40227c:	44 89 e7             	mov    %r12d,%edi
  40227f:	e8 6c ea ff ff       	callq  400cf0 <write@plt>
  402284:	48 85 c0             	test   %rax,%rax
  402287:	7f e2                	jg     40226b <rio_writen+0x18>
  402289:	e8 12 ea ff ff       	callq  400ca0 <__errno_location@plt>
  40228e:	83 38 04             	cmpl   $0x4,(%rax)
  402291:	75 15                	jne    4022a8 <rio_writen+0x55>
  402293:	b8 00 00 00 00       	mov    $0x0,%eax
  402298:	eb d1                	jmp    40226b <rio_writen+0x18>
  40229a:	4c 89 e8             	mov    %r13,%rax
  40229d:	48 83 c4 08          	add    $0x8,%rsp
  4022a1:	5b                   	pop    %rbx
  4022a2:	5d                   	pop    %rbp
  4022a3:	41 5c                	pop    %r12
  4022a5:	41 5d                	pop    %r13
  4022a7:	c3                   	retq   
  4022a8:	48 c7 c0 ff ff ff ff 	mov    $0xffffffffffffffff,%rax
  4022af:	eb ec                	jmp    40229d <rio_writen+0x4a>

00000000004022b1 <rio_read>:
  4022b1:	41 55                	push   %r13
  4022b3:	41 54                	push   %r12
  4022b5:	55                   	push   %rbp
  4022b6:	53                   	push   %rbx
  4022b7:	48 83 ec 08          	sub    $0x8,%rsp
  4022bb:	48 89 fb             	mov    %rdi,%rbx
  4022be:	49 89 f5             	mov    %rsi,%r13
  4022c1:	49 89 d4             	mov    %rdx,%r12
  4022c4:	eb 0a                	jmp    4022d0 <rio_read+0x1f>
  4022c6:	e8 d5 e9 ff ff       	callq  400ca0 <__errno_location@plt>
  4022cb:	83 38 04             	cmpl   $0x4,(%rax)
  4022ce:	75 5a                	jne    40232a <rio_read+0x79>
  4022d0:	8b 6b 04             	mov    0x4(%rbx),%ebp
  4022d3:	85 ed                	test   %ebp,%ebp
  4022d5:	7f 22                	jg     4022f9 <rio_read+0x48>
  4022d7:	48 8d 6b 10          	lea    0x10(%rbx),%rbp
  4022db:	8b 3b                	mov    (%rbx),%edi
  4022dd:	ba 00 20 00 00       	mov    $0x2000,%edx
  4022e2:	48 89 ee             	mov    %rbp,%rsi
  4022e5:	e8 66 ea ff ff       	callq  400d50 <read@plt>
  4022ea:	89 43 04             	mov    %eax,0x4(%rbx)
  4022ed:	85 c0                	test   %eax,%eax
  4022ef:	78 d5                	js     4022c6 <rio_read+0x15>
  4022f1:	74 40                	je     402333 <rio_read+0x82>
  4022f3:	48 89 6b 08          	mov    %rbp,0x8(%rbx)
  4022f7:	eb d7                	jmp    4022d0 <rio_read+0x1f>
  4022f9:	89 e8                	mov    %ebp,%eax
  4022fb:	4c 39 e0             	cmp    %r12,%rax
  4022fe:	72 03                	jb     402303 <rio_read+0x52>
  402300:	44 89 e5             	mov    %r12d,%ebp
  402303:	4c 63 e5             	movslq %ebp,%r12
  402306:	48 8b 73 08          	mov    0x8(%rbx),%rsi
  40230a:	4c 89 e2             	mov    %r12,%rdx
  40230d:	4c 89 ef             	mov    %r13,%rdi
  402310:	e8 ab ea ff ff       	callq  400dc0 <memcpy@plt>
  402315:	4c 01 63 08          	add    %r12,0x8(%rbx)
  402319:	29 6b 04             	sub    %ebp,0x4(%rbx)
  40231c:	4c 89 e0             	mov    %r12,%rax
  40231f:	48 83 c4 08          	add    $0x8,%rsp
  402323:	5b                   	pop    %rbx
  402324:	5d                   	pop    %rbp
  402325:	41 5c                	pop    %r12
  402327:	41 5d                	pop    %r13
  402329:	c3                   	retq   
  40232a:	48 c7 c0 ff ff ff ff 	mov    $0xffffffffffffffff,%rax
  402331:	eb ec                	jmp    40231f <rio_read+0x6e>
  402333:	b8 00 00 00 00       	mov    $0x0,%eax
  402338:	eb e5                	jmp    40231f <rio_read+0x6e>

000000000040233a <rio_readlineb>:
  40233a:	41 55                	push   %r13
  40233c:	41 54                	push   %r12
  40233e:	55                   	push   %rbp
  40233f:	53                   	push   %rbx
  402340:	48 83 ec 18          	sub    $0x18,%rsp
  402344:	49 89 fd             	mov    %rdi,%r13
  402347:	48 89 f5             	mov    %rsi,%rbp
  40234a:	49 89 d4             	mov    %rdx,%r12
  40234d:	bb 01 00 00 00       	mov    $0x1,%ebx
  402352:	4c 39 e3             	cmp    %r12,%rbx
  402355:	73 44                	jae    40239b <rio_readlineb+0x61>
  402357:	ba 01 00 00 00       	mov    $0x1,%edx
  40235c:	48 8d 74 24 0f       	lea    0xf(%rsp),%rsi
  402361:	4c 89 ef             	mov    %r13,%rdi
  402364:	e8 48 ff ff ff       	callq  4022b1 <rio_read>
  402369:	83 f8 01             	cmp    $0x1,%eax
  40236c:	75 19                	jne    402387 <rio_readlineb+0x4d>
  40236e:	48 8d 55 01          	lea    0x1(%rbp),%rdx
  402372:	0f b6 44 24 0f       	movzbl 0xf(%rsp),%eax
  402377:	88 45 00             	mov    %al,0x0(%rbp)
  40237a:	3c 0a                	cmp    $0xa,%al
  40237c:	74 1a                	je     402398 <rio_readlineb+0x5e>
  40237e:	48 83 c3 01          	add    $0x1,%rbx
  402382:	48 89 d5             	mov    %rdx,%rbp
  402385:	eb cb                	jmp    402352 <rio_readlineb+0x18>
  402387:	85 c0                	test   %eax,%eax
  402389:	75 22                	jne    4023ad <rio_readlineb+0x73>
  40238b:	48 83 fb 01          	cmp    $0x1,%rbx
  40238f:	75 0a                	jne    40239b <rio_readlineb+0x61>
  402391:	b8 00 00 00 00       	mov    $0x0,%eax
  402396:	eb 0a                	jmp    4023a2 <rio_readlineb+0x68>
  402398:	48 89 d5             	mov    %rdx,%rbp
  40239b:	c6 45 00 00          	movb   $0x0,0x0(%rbp)
  40239f:	48 89 d8             	mov    %rbx,%rax
  4023a2:	48 83 c4 18          	add    $0x18,%rsp
  4023a6:	5b                   	pop    %rbx
  4023a7:	5d                   	pop    %rbp
  4023a8:	41 5c                	pop    %r12
  4023aa:	41 5d                	pop    %r13
  4023ac:	c3                   	retq   
  4023ad:	48 c7 c0 ff ff ff ff 	mov    $0xffffffffffffffff,%rax
  4023b4:	eb ec                	jmp    4023a2 <rio_readlineb+0x68>

00000000004023b6 <urlencode>:
  4023b6:	41 54                	push   %r12
  4023b8:	55                   	push   %rbp
  4023b9:	53                   	push   %rbx
  4023ba:	48 83 ec 10          	sub    $0x10,%rsp
  4023be:	48 89 fb             	mov    %rdi,%rbx
  4023c1:	48 89 f5             	mov    %rsi,%rbp
  4023c4:	64 48 8b 04 25 28 00 	mov    %fs:0x28,%rax
  4023cb:	00 00 
  4023cd:	48 89 44 24 08       	mov    %rax,0x8(%rsp)
  4023d2:	31 c0                	xor    %eax,%eax
  4023d4:	48 c7 c1 ff ff ff ff 	mov    $0xffffffffffffffff,%rcx
  4023db:	f2 ae                	repnz scas %es:(%rdi),%al
  4023dd:	48 89 ce             	mov    %rcx,%rsi
  4023e0:	48 f7 d6             	not    %rsi
  4023e3:	8d 46 ff             	lea    -0x1(%rsi),%eax
  4023e6:	eb 0f                	jmp    4023f7 <urlencode+0x41>
  4023e8:	44 88 45 00          	mov    %r8b,0x0(%rbp)
  4023ec:	48 8d 6d 01          	lea    0x1(%rbp),%rbp
  4023f0:	48 83 c3 01          	add    $0x1,%rbx
  4023f4:	44 89 e0             	mov    %r12d,%eax
  4023f7:	44 8d 60 ff          	lea    -0x1(%rax),%r12d
  4023fb:	85 c0                	test   %eax,%eax
  4023fd:	0f 84 a6 00 00 00    	je     4024a9 <urlencode+0xf3>
  402403:	44 0f b6 03          	movzbl (%rbx),%r8d
  402407:	41 80 f8 2a          	cmp    $0x2a,%r8b
  40240b:	0f 94 c2             	sete   %dl
  40240e:	41 80 f8 2d          	cmp    $0x2d,%r8b
  402412:	0f 94 c0             	sete   %al
  402415:	08 c2                	or     %al,%dl
  402417:	75 cf                	jne    4023e8 <urlencode+0x32>
  402419:	41 80 f8 2e          	cmp    $0x2e,%r8b
  40241d:	74 c9                	je     4023e8 <urlencode+0x32>
  40241f:	41 80 f8 5f          	cmp    $0x5f,%r8b
  402423:	74 c3                	je     4023e8 <urlencode+0x32>
  402425:	41 8d 40 d0          	lea    -0x30(%r8),%eax
  402429:	3c 09                	cmp    $0x9,%al
  40242b:	76 bb                	jbe    4023e8 <urlencode+0x32>
  40242d:	41 8d 40 bf          	lea    -0x41(%r8),%eax
  402431:	3c 19                	cmp    $0x19,%al
  402433:	76 b3                	jbe    4023e8 <urlencode+0x32>
  402435:	41 8d 40 9f          	lea    -0x61(%r8),%eax
  402439:	3c 19                	cmp    $0x19,%al
  40243b:	76 ab                	jbe    4023e8 <urlencode+0x32>
  40243d:	41 80 f8 20          	cmp    $0x20,%r8b
  402441:	74 54                	je     402497 <urlencode+0xe1>
  402443:	41 8d 40 e0          	lea    -0x20(%r8),%eax
  402447:	3c 5f                	cmp    $0x5f,%al
  402449:	0f 96 c2             	setbe  %dl
  40244c:	41 80 f8 09          	cmp    $0x9,%r8b
  402450:	0f 94 c0             	sete   %al
  402453:	08 c2                	or     %al,%dl
  402455:	74 4d                	je     4024a4 <urlencode+0xee>
  402457:	45 0f b6 c0          	movzbl %r8b,%r8d
  40245b:	b9 a8 37 40 00       	mov    $0x4037a8,%ecx
  402460:	ba 08 00 00 00       	mov    $0x8,%edx
  402465:	be 01 00 00 00       	mov    $0x1,%esi
  40246a:	48 89 e7             	mov    %rsp,%rdi
  40246d:	b8 00 00 00 00       	mov    $0x0,%eax
  402472:	e8 29 ea ff ff       	callq  400ea0 <__sprintf_chk@plt>
  402477:	0f b6 04 24          	movzbl (%rsp),%eax
  40247b:	88 45 00             	mov    %al,0x0(%rbp)
  40247e:	0f b6 44 24 01       	movzbl 0x1(%rsp),%eax
  402483:	88 45 01             	mov    %al,0x1(%rbp)
  402486:	0f b6 44 24 02       	movzbl 0x2(%rsp),%eax
  40248b:	88 45 02             	mov    %al,0x2(%rbp)
  40248e:	48 8d 6d 03          	lea    0x3(%rbp),%rbp
  402492:	e9 59 ff ff ff       	jmpq   4023f0 <urlencode+0x3a>
  402497:	c6 45 00 2b          	movb   $0x2b,0x0(%rbp)
  40249b:	48 8d 6d 01          	lea    0x1(%rbp),%rbp
  40249f:	e9 4c ff ff ff       	jmpq   4023f0 <urlencode+0x3a>
  4024a4:	b8 ff ff ff ff       	mov    $0xffffffff,%eax
  4024a9:	48 8b 74 24 08       	mov    0x8(%rsp),%rsi
  4024ae:	64 48 33 34 25 28 00 	xor    %fs:0x28,%rsi
  4024b5:	00 00 
  4024b7:	75 09                	jne    4024c2 <urlencode+0x10c>
  4024b9:	48 83 c4 10          	add    $0x10,%rsp
  4024bd:	5b                   	pop    %rbx
  4024be:	5d                   	pop    %rbp
  4024bf:	41 5c                	pop    %r12
  4024c1:	c3                   	retq   
  4024c2:	e8 39 e8 ff ff       	callq  400d00 <__stack_chk_fail@plt>

00000000004024c7 <submitr>:
  4024c7:	41 57                	push   %r15
  4024c9:	41 56                	push   %r14
  4024cb:	41 55                	push   %r13
  4024cd:	41 54                	push   %r12
  4024cf:	55                   	push   %rbp
  4024d0:	53                   	push   %rbx
  4024d1:	48 81 ec 58 a0 00 00 	sub    $0xa058,%rsp
  4024d8:	49 89 fc             	mov    %rdi,%r12
  4024db:	89 74 24 04          	mov    %esi,0x4(%rsp)
  4024df:	49 89 d7             	mov    %rdx,%r15
  4024e2:	49 89 ce             	mov    %rcx,%r14
  4024e5:	4c 89 44 24 08       	mov    %r8,0x8(%rsp)
  4024ea:	4d 89 cd             	mov    %r9,%r13
  4024ed:	48 8b ac 24 90 a0 00 	mov    0xa090(%rsp),%rbp
  4024f4:	00 
  4024f5:	64 48 8b 04 25 28 00 	mov    %fs:0x28,%rax
  4024fc:	00 00 
  4024fe:	48 89 84 24 48 a0 00 	mov    %rax,0xa048(%rsp)
  402505:	00 
  402506:	31 c0                	xor    %eax,%eax
  402508:	c7 44 24 1c 00 00 00 	movl   $0x0,0x1c(%rsp)
  40250f:	00 
  402510:	ba 00 00 00 00       	mov    $0x0,%edx
  402515:	be 01 00 00 00       	mov    $0x1,%esi
  40251a:	bf 02 00 00 00       	mov    $0x2,%edi
  40251f:	e8 8c e9 ff ff       	callq  400eb0 <socket@plt>
  402524:	85 c0                	test   %eax,%eax
  402526:	0f 88 c3 01 00 00    	js     4026ef <submitr+0x228>
  40252c:	89 c3                	mov    %eax,%ebx
  40252e:	4c 89 e7             	mov    %r12,%rdi
  402531:	e8 4a e8 ff ff       	callq  400d80 <gethostbyname@plt>
  402536:	48 85 c0             	test   %rax,%rax
  402539:	0f 84 ff 01 00 00    	je     40273e <submitr+0x277>
  40253f:	48 8d 4c 24 20       	lea    0x20(%rsp),%rcx
  402544:	48 c7 44 24 22 00 00 	movq   $0x0,0x22(%rsp)
  40254b:	00 00 
  40254d:	c7 44 24 2a 00 00 00 	movl   $0x0,0x2a(%rsp)
  402554:	00 
  402555:	66 c7 44 24 2e 00 00 	movw   $0x0,0x2e(%rsp)
  40255c:	66 c7 44 24 20 02 00 	movw   $0x2,0x20(%rsp)
  402563:	48 63 50 14          	movslq 0x14(%rax),%rdx
  402567:	48 8b 40 18          	mov    0x18(%rax),%rax
  40256b:	48 8b 30             	mov    (%rax),%rsi
  40256e:	48 8d 79 04          	lea    0x4(%rcx),%rdi
  402572:	b9 0c 00 00 00       	mov    $0xc,%ecx
  402577:	e8 14 e8 ff ff       	callq  400d90 <__memmove_chk@plt>
  40257c:	0f b7 44 24 04       	movzwl 0x4(%rsp),%eax
  402581:	66 c1 c8 08          	ror    $0x8,%ax
  402585:	66 89 44 24 22       	mov    %ax,0x22(%rsp)
  40258a:	ba 10 00 00 00       	mov    $0x10,%edx
  40258f:	48 8d 74 24 20       	lea    0x20(%rsp),%rsi
  402594:	89 df                	mov    %ebx,%edi
  402596:	e8 e5 e8 ff ff       	callq  400e80 <connect@plt>
  40259b:	85 c0                	test   %eax,%eax
  40259d:	0f 88 03 02 00 00    	js     4027a6 <submitr+0x2df>
  4025a3:	48 c7 c6 ff ff ff ff 	mov    $0xffffffffffffffff,%rsi
  4025aa:	b8 00 00 00 00       	mov    $0x0,%eax
  4025af:	48 89 f1             	mov    %rsi,%rcx
  4025b2:	4c 89 ef             	mov    %r13,%rdi
  4025b5:	f2 ae                	repnz scas %es:(%rdi),%al
  4025b7:	48 f7 d1             	not    %rcx
  4025ba:	48 89 ca             	mov    %rcx,%rdx
  4025bd:	48 89 f1             	mov    %rsi,%rcx
  4025c0:	4c 89 ff             	mov    %r15,%rdi
  4025c3:	f2 ae                	repnz scas %es:(%rdi),%al
  4025c5:	48 f7 d1             	not    %rcx
  4025c8:	49 89 c8             	mov    %rcx,%r8
  4025cb:	48 89 f1             	mov    %rsi,%rcx
  4025ce:	4c 89 f7             	mov    %r14,%rdi
  4025d1:	f2 ae                	repnz scas %es:(%rdi),%al
  4025d3:	48 f7 d1             	not    %rcx
  4025d6:	4d 8d 44 08 fe       	lea    -0x2(%r8,%rcx,1),%r8
  4025db:	48 89 f1             	mov    %rsi,%rcx
  4025de:	48 8b 7c 24 08       	mov    0x8(%rsp),%rdi
  4025e3:	f2 ae                	repnz scas %es:(%rdi),%al
  4025e5:	48 89 c8             	mov    %rcx,%rax
  4025e8:	48 f7 d0             	not    %rax
  4025eb:	49 8d 4c 00 ff       	lea    -0x1(%r8,%rax,1),%rcx
  4025f0:	48 8d 44 52 fd       	lea    -0x3(%rdx,%rdx,2),%rax
  4025f5:	48 8d 84 01 80 00 00 	lea    0x80(%rcx,%rax,1),%rax
  4025fc:	00 
  4025fd:	48 3d 00 20 00 00    	cmp    $0x2000,%rax
  402603:	0f 87 f7 01 00 00    	ja     402800 <submitr+0x339>
  402609:	48 8d b4 24 30 20 00 	lea    0x2030(%rsp),%rsi
  402610:	00 
  402611:	b9 00 04 00 00       	mov    $0x400,%ecx
  402616:	b8 00 00 00 00       	mov    $0x0,%eax
  40261b:	48 89 f7             	mov    %rsi,%rdi
  40261e:	f3 48 ab             	rep stos %rax,%es:(%rdi)
  402621:	4c 89 ef             	mov    %r13,%rdi
  402624:	e8 8d fd ff ff       	callq  4023b6 <urlencode>
  402629:	85 c0                	test   %eax,%eax
  40262b:	0f 88 42 02 00 00    	js     402873 <submitr+0x3ac>
  402631:	4c 8d 6c 24 30       	lea    0x30(%rsp),%r13
  402636:	41 54                	push   %r12
  402638:	48 8d 84 24 38 20 00 	lea    0x2038(%rsp),%rax
  40263f:	00 
  402640:	50                   	push   %rax
  402641:	4d 89 f9             	mov    %r15,%r9
  402644:	4d 89 f0             	mov    %r14,%r8
  402647:	b9 38 37 40 00       	mov    $0x403738,%ecx
  40264c:	ba 00 20 00 00       	mov    $0x2000,%edx
  402651:	be 01 00 00 00       	mov    $0x1,%esi
  402656:	4c 89 ef             	mov    %r13,%rdi
  402659:	b8 00 00 00 00       	mov    $0x0,%eax
  40265e:	e8 3d e8 ff ff       	callq  400ea0 <__sprintf_chk@plt>
  402663:	48 c7 c1 ff ff ff ff 	mov    $0xffffffffffffffff,%rcx
  40266a:	b8 00 00 00 00       	mov    $0x0,%eax
  40266f:	4c 89 ef             	mov    %r13,%rdi
  402672:	f2 ae                	repnz scas %es:(%rdi),%al
  402674:	48 f7 d1             	not    %rcx
  402677:	48 8d 51 ff          	lea    -0x1(%rcx),%rdx
  40267b:	4c 89 ee             	mov    %r13,%rsi
  40267e:	89 df                	mov    %ebx,%edi
  402680:	e8 ce fb ff ff       	callq  402253 <rio_writen>
  402685:	48 83 c4 10          	add    $0x10,%rsp
  402689:	48 85 c0             	test   %rax,%rax
  40268c:	0f 88 6c 02 00 00    	js     4028fe <submitr+0x437>
  402692:	89 de                	mov    %ebx,%esi
  402694:	48 8d bc 24 30 80 00 	lea    0x8030(%rsp),%rdi
  40269b:	00 
  40269c:	e8 72 fb ff ff       	callq  402213 <rio_readinitb>
  4026a1:	ba 00 20 00 00       	mov    $0x2000,%edx
  4026a6:	48 8d 74 24 30       	lea    0x30(%rsp),%rsi
  4026ab:	48 8d bc 24 30 80 00 	lea    0x8030(%rsp),%rdi
  4026b2:	00 
  4026b3:	e8 82 fc ff ff       	callq  40233a <rio_readlineb>
  4026b8:	48 85 c0             	test   %rax,%rax
  4026bb:	0f 8e ac 02 00 00    	jle    40296d <submitr+0x4a6>
  4026c1:	4c 8d 84 24 30 60 00 	lea    0x6030(%rsp),%r8
  4026c8:	00 
  4026c9:	48 8d 4c 24 1c       	lea    0x1c(%rsp),%rcx
  4026ce:	48 8d 94 24 30 40 00 	lea    0x4030(%rsp),%rdx
  4026d5:	00 
  4026d6:	be af 37 40 00       	mov    $0x4037af,%esi
  4026db:	48 8d 7c 24 30       	lea    0x30(%rsp),%rdi
  4026e0:	b8 00 00 00 00       	mov    $0x0,%eax
  4026e5:	e8 16 e7 ff ff       	callq  400e00 <__isoc99_sscanf@plt>
  4026ea:	e9 bb 03 00 00       	jmpq   402aaa <submitr+0x5e3>
  4026ef:	48 b8 45 72 72 6f 72 	movabs $0x43203a726f727245,%rax
  4026f6:	3a 20 43 
  4026f9:	48 ba 6c 69 65 6e 74 	movabs $0x6e7520746e65696c,%rdx
  402700:	20 75 6e 
  402703:	48 89 45 00          	mov    %rax,0x0(%rbp)
  402707:	48 89 55 08          	mov    %rdx,0x8(%rbp)
  40270b:	48 b8 61 62 6c 65 20 	movabs $0x206f7420656c6261,%rax
  402712:	74 6f 20 
  402715:	48 ba 63 72 65 61 74 	movabs $0x7320657461657263,%rdx
  40271c:	65 20 73 
  40271f:	48 89 45 10          	mov    %rax,0x10(%rbp)
  402723:	48 89 55 18          	mov    %rdx,0x18(%rbp)
  402727:	c7 45 20 6f 63 6b 65 	movl   $0x656b636f,0x20(%rbp)
  40272e:	66 c7 45 24 74 00    	movw   $0x74,0x24(%rbp)
  402734:	b8 ff ff ff ff       	mov    $0xffffffff,%eax
  402739:	e9 1f 03 00 00       	jmpq   402a5d <submitr+0x596>
  40273e:	48 b8 45 72 72 6f 72 	movabs $0x44203a726f727245,%rax
  402745:	3a 20 44 
  402748:	48 ba 4e 53 20 69 73 	movabs $0x6e7520736920534e,%rdx
  40274f:	20 75 6e 
  402752:	48 89 45 00          	mov    %rax,0x0(%rbp)
  402756:	48 89 55 08          	mov    %rdx,0x8(%rbp)
  40275a:	48 b8 61 62 6c 65 20 	movabs $0x206f7420656c6261,%rax
  402761:	74 6f 20 
  402764:	48 ba 72 65 73 6f 6c 	movabs $0x2065766c6f736572,%rdx
  40276b:	76 65 20 
  40276e:	48 89 45 10          	mov    %rax,0x10(%rbp)
  402772:	48 89 55 18          	mov    %rdx,0x18(%rbp)
  402776:	48 b8 73 65 72 76 65 	movabs $0x6120726576726573,%rax
  40277d:	72 20 61 
  402780:	48 89 45 20          	mov    %rax,0x20(%rbp)
  402784:	c7 45 28 64 64 72 65 	movl   $0x65726464,0x28(%rbp)
  40278b:	66 c7 45 2c 73 73    	movw   $0x7373,0x2c(%rbp)
  402791:	c6 45 2e 00          	movb   $0x0,0x2e(%rbp)
  402795:	89 df                	mov    %ebx,%edi
  402797:	e8 a4 e5 ff ff       	callq  400d40 <close@plt>
  40279c:	b8 ff ff ff ff       	mov    $0xffffffff,%eax
  4027a1:	e9 b7 02 00 00       	jmpq   402a5d <submitr+0x596>
  4027a6:	48 b8 45 72 72 6f 72 	movabs $0x55203a726f727245,%rax
  4027ad:	3a 20 55 
  4027b0:	48 ba 6e 61 62 6c 65 	movabs $0x6f7420656c62616e,%rdx
  4027b7:	20 74 6f 
  4027ba:	48 89 45 00          	mov    %rax,0x0(%rbp)
  4027be:	48 89 55 08          	mov    %rdx,0x8(%rbp)
  4027c2:	48 b8 20 63 6f 6e 6e 	movabs $0x7463656e6e6f6320,%rax
  4027c9:	65 63 74 
  4027cc:	48 ba 20 74 6f 20 74 	movabs $0x20656874206f7420,%rdx
  4027d3:	68 65 20 
  4027d6:	48 89 45 10          	mov    %rax,0x10(%rbp)
  4027da:	48 89 55 18          	mov    %rdx,0x18(%rbp)
  4027de:	c7 45 20 73 65 72 76 	movl   $0x76726573,0x20(%rbp)
  4027e5:	66 c7 45 24 65 72    	movw   $0x7265,0x24(%rbp)
  4027eb:	c6 45 26 00          	movb   $0x0,0x26(%rbp)
  4027ef:	89 df                	mov    %ebx,%edi
  4027f1:	e8 4a e5 ff ff       	callq  400d40 <close@plt>
  4027f6:	b8 ff ff ff ff       	mov    $0xffffffff,%eax
  4027fb:	e9 5d 02 00 00       	jmpq   402a5d <submitr+0x596>
  402800:	48 b8 45 72 72 6f 72 	movabs $0x52203a726f727245,%rax
  402807:	3a 20 52 
  40280a:	48 ba 65 73 75 6c 74 	movabs $0x747320746c757365,%rdx
  402811:	20 73 74 
  402814:	48 89 45 00          	mov    %rax,0x0(%rbp)
  402818:	48 89 55 08          	mov    %rdx,0x8(%rbp)
  40281c:	48 b8 72 69 6e 67 20 	movabs $0x6f6f7420676e6972,%rax
  402823:	74 6f 6f 
  402826:	48 ba 20 6c 61 72 67 	movabs $0x202e656772616c20,%rdx
  40282d:	65 2e 20 
  402830:	48 89 45 10          	mov    %rax,0x10(%rbp)
  402834:	48 89 55 18          	mov    %rdx,0x18(%rbp)
  402838:	48 b8 49 6e 63 72 65 	movabs $0x6573616572636e49,%rax
  40283f:	61 73 65 
  402842:	48 ba 20 53 55 42 4d 	movabs $0x5254494d42555320,%rdx
  402849:	49 54 52 
  40284c:	48 89 45 20          	mov    %rax,0x20(%rbp)
  402850:	48 89 55 28          	mov    %rdx,0x28(%rbp)
  402854:	48 b8 5f 4d 41 58 42 	movabs $0x46554258414d5f,%rax
  40285b:	55 46 00 
  40285e:	48 89 45 30          	mov    %rax,0x30(%rbp)
  402862:	89 df                	mov    %ebx,%edi
  402864:	e8 d7 e4 ff ff       	callq  400d40 <close@plt>
  402869:	b8 ff ff ff ff       	mov    $0xffffffff,%eax
  40286e:	e9 ea 01 00 00       	jmpq   402a5d <submitr+0x596>
  402873:	48 b8 45 72 72 6f 72 	movabs $0x52203a726f727245,%rax
  40287a:	3a 20 52 
  40287d:	48 ba 65 73 75 6c 74 	movabs $0x747320746c757365,%rdx
  402884:	20 73 74 
  402887:	48 89 45 00          	mov    %rax,0x0(%rbp)
  40288b:	48 89 55 08          	mov    %rdx,0x8(%rbp)
  40288f:	48 b8 72 69 6e 67 20 	movabs $0x6e6f6320676e6972,%rax
  402896:	63 6f 6e 
  402899:	48 ba 74 61 69 6e 73 	movabs $0x6e6120736e696174,%rdx
  4028a0:	20 61 6e 
  4028a3:	48 89 45 10          	mov    %rax,0x10(%rbp)
  4028a7:	48 89 55 18          	mov    %rdx,0x18(%rbp)
  4028ab:	48 b8 20 69 6c 6c 65 	movabs $0x6c6167656c6c6920,%rax
  4028b2:	67 61 6c 
  4028b5:	48 ba 20 6f 72 20 75 	movabs $0x72706e7520726f20,%rdx
  4028bc:	6e 70 72 
  4028bf:	48 89 45 20          	mov    %rax,0x20(%rbp)
  4028c3:	48 89 55 28          	mov    %rdx,0x28(%rbp)
  4028c7:	48 b8 69 6e 74 61 62 	movabs $0x20656c6261746e69,%rax
  4028ce:	6c 65 20 
  4028d1:	48 ba 63 68 61 72 61 	movabs $0x6574636172616863,%rdx
  4028d8:	63 74 65 
  4028db:	48 89 45 30          	mov    %rax,0x30(%rbp)
  4028df:	48 89 55 38          	mov    %rdx,0x38(%rbp)
  4028e3:	66 c7 45 40 72 2e    	movw   $0x2e72,0x40(%rbp)
  4028e9:	c6 45 42 00          	movb   $0x0,0x42(%rbp)
  4028ed:	89 df                	mov    %ebx,%edi
  4028ef:	e8 4c e4 ff ff       	callq  400d40 <close@plt>
  4028f4:	b8 ff ff ff ff       	mov    $0xffffffff,%eax
  4028f9:	e9 5f 01 00 00       	jmpq   402a5d <submitr+0x596>
  4028fe:	48 b8 45 72 72 6f 72 	movabs $0x43203a726f727245,%rax
  402905:	3a 20 43 
  402908:	48 ba 6c 69 65 6e 74 	movabs $0x6e7520746e65696c,%rdx
  40290f:	20 75 6e 
  402912:	48 89 45 00          	mov    %rax,0x0(%rbp)
  402916:	48 89 55 08          	mov    %rdx,0x8(%rbp)
  40291a:	48 b8 61 62 6c 65 20 	movabs $0x206f7420656c6261,%rax
  402921:	74 6f 20 
  402924:	48 ba 77 72 69 74 65 	movabs $0x6f74206574697277,%rdx
  40292b:	20 74 6f 
  40292e:	48 89 45 10          	mov    %rax,0x10(%rbp)
  402932:	48 89 55 18          	mov    %rdx,0x18(%rbp)
  402936:	48 b8 20 74 68 65 20 	movabs $0x7365722065687420,%rax
  40293d:	72 65 73 
  402940:	48 ba 75 6c 74 20 73 	movabs $0x7672657320746c75,%rdx
  402947:	65 72 76 
  40294a:	48 89 45 20          	mov    %rax,0x20(%rbp)
  40294e:	48 89 55 28          	mov    %rdx,0x28(%rbp)
  402952:	66 c7 45 30 65 72    	movw   $0x7265,0x30(%rbp)
  402958:	c6 45 32 00          	movb   $0x0,0x32(%rbp)
  40295c:	89 df                	mov    %ebx,%edi
  40295e:	e8 dd e3 ff ff       	callq  400d40 <close@plt>
  402963:	b8 ff ff ff ff       	mov    $0xffffffff,%eax
  402968:	e9 f0 00 00 00       	jmpq   402a5d <submitr+0x596>
  40296d:	48 b8 45 72 72 6f 72 	movabs $0x43203a726f727245,%rax
  402974:	3a 20 43 
  402977:	48 ba 6c 69 65 6e 74 	movabs $0x6e7520746e65696c,%rdx
  40297e:	20 75 6e 
  402981:	48 89 45 00          	mov    %rax,0x0(%rbp)
  402985:	48 89 55 08          	mov    %rdx,0x8(%rbp)
  402989:	48 b8 61 62 6c 65 20 	movabs $0x206f7420656c6261,%rax
  402990:	74 6f 20 
  402993:	48 ba 72 65 61 64 20 	movabs $0x7269662064616572,%rdx
  40299a:	66 69 72 
  40299d:	48 89 45 10          	mov    %rax,0x10(%rbp)
  4029a1:	48 89 55 18          	mov    %rdx,0x18(%rbp)
  4029a5:	48 b8 73 74 20 68 65 	movabs $0x6564616568207473,%rax
  4029ac:	61 64 65 
  4029af:	48 ba 72 20 66 72 6f 	movabs $0x72206d6f72662072,%rdx
  4029b6:	6d 20 72 
  4029b9:	48 89 45 20          	mov    %rax,0x20(%rbp)
  4029bd:	48 89 55 28          	mov    %rdx,0x28(%rbp)
  4029c1:	48 b8 65 73 75 6c 74 	movabs $0x657320746c757365,%rax
  4029c8:	20 73 65 
  4029cb:	48 89 45 30          	mov    %rax,0x30(%rbp)
  4029cf:	c7 45 38 72 76 65 72 	movl   $0x72657672,0x38(%rbp)
  4029d6:	c6 45 3c 00          	movb   $0x0,0x3c(%rbp)
  4029da:	89 df                	mov    %ebx,%edi
  4029dc:	e8 5f e3 ff ff       	callq  400d40 <close@plt>
  4029e1:	b8 ff ff ff ff       	mov    $0xffffffff,%eax
  4029e6:	eb 75                	jmp    402a5d <submitr+0x596>
  4029e8:	48 b8 45 72 72 6f 72 	movabs $0x43203a726f727245,%rax
  4029ef:	3a 20 43 
  4029f2:	48 ba 6c 69 65 6e 74 	movabs $0x6e7520746e65696c,%rdx
  4029f9:	20 75 6e 
  4029fc:	48 89 45 00          	mov    %rax,0x0(%rbp)
  402a00:	48 89 55 08          	mov    %rdx,0x8(%rbp)
  402a04:	48 b8 61 62 6c 65 20 	movabs $0x206f7420656c6261,%rax
  402a0b:	74 6f 20 
  402a0e:	48 ba 72 65 61 64 20 	movabs $0x6165682064616572,%rdx
  402a15:	68 65 61 
  402a18:	48 89 45 10          	mov    %rax,0x10(%rbp)
  402a1c:	48 89 55 18          	mov    %rdx,0x18(%rbp)
  402a20:	48 b8 64 65 72 73 20 	movabs $0x6f72662073726564,%rax
  402a27:	66 72 6f 
  402a2a:	48 ba 6d 20 74 68 65 	movabs $0x657220656874206d,%rdx
  402a31:	20 72 65 
  402a34:	48 89 45 20          	mov    %rax,0x20(%rbp)
  402a38:	48 89 55 28          	mov    %rdx,0x28(%rbp)
  402a3c:	48 b8 73 75 6c 74 20 	movabs $0x72657320746c7573,%rax
  402a43:	73 65 72 
  402a46:	48 89 45 30          	mov    %rax,0x30(%rbp)
  402a4a:	c7 45 38 76 65 72 00 	movl   $0x726576,0x38(%rbp)
  402a51:	89 df                	mov    %ebx,%edi
  402a53:	e8 e8 e2 ff ff       	callq  400d40 <close@plt>
  402a58:	b8 ff ff ff ff       	mov    $0xffffffff,%eax
  402a5d:	48 8b 9c 24 48 a0 00 	mov    0xa048(%rsp),%rbx
  402a64:	00 
  402a65:	64 48 33 1c 25 28 00 	xor    %fs:0x28,%rbx
  402a6c:	00 00 
  402a6e:	0f 85 eb 01 00 00    	jne    402c5f <submitr+0x798>
  402a74:	48 81 c4 58 a0 00 00 	add    $0xa058,%rsp
  402a7b:	5b                   	pop    %rbx
  402a7c:	5d                   	pop    %rbp
  402a7d:	41 5c                	pop    %r12
  402a7f:	41 5d                	pop    %r13
  402a81:	41 5e                	pop    %r14
  402a83:	41 5f                	pop    %r15
  402a85:	c3                   	retq   
  402a86:	85 c0                	test   %eax,%eax
  402a88:	74 45                	je     402acf <submitr+0x608>
  402a8a:	ba 00 20 00 00       	mov    $0x2000,%edx
  402a8f:	48 8d 74 24 30       	lea    0x30(%rsp),%rsi
  402a94:	48 8d bc 24 30 80 00 	lea    0x8030(%rsp),%rdi
  402a9b:	00 
  402a9c:	e8 99 f8 ff ff       	callq  40233a <rio_readlineb>
  402aa1:	48 85 c0             	test   %rax,%rax
  402aa4:	0f 8e 3e ff ff ff    	jle    4029e8 <submitr+0x521>
  402aaa:	0f b6 54 24 30       	movzbl 0x30(%rsp),%edx
  402aaf:	b8 0d 00 00 00       	mov    $0xd,%eax
  402ab4:	29 d0                	sub    %edx,%eax
  402ab6:	75 ce                	jne    402a86 <submitr+0x5bf>
  402ab8:	0f b6 54 24 31       	movzbl 0x31(%rsp),%edx
  402abd:	b8 0a 00 00 00       	mov    $0xa,%eax
  402ac2:	29 d0                	sub    %edx,%eax
  402ac4:	75 c0                	jne    402a86 <submitr+0x5bf>
  402ac6:	0f b6 44 24 32       	movzbl 0x32(%rsp),%eax
  402acb:	f7 d8                	neg    %eax
  402acd:	eb b7                	jmp    402a86 <submitr+0x5bf>
  402acf:	ba 00 20 00 00       	mov    $0x2000,%edx
  402ad4:	48 8d 74 24 30       	lea    0x30(%rsp),%rsi
  402ad9:	48 8d bc 24 30 80 00 	lea    0x8030(%rsp),%rdi
  402ae0:	00 
  402ae1:	e8 54 f8 ff ff       	callq  40233a <rio_readlineb>
  402ae6:	48 85 c0             	test   %rax,%rax
  402ae9:	7e 64                	jle    402b4f <submitr+0x688>
  402aeb:	44 8b 44 24 1c       	mov    0x1c(%rsp),%r8d
  402af0:	41 81 f8 c8 00 00 00 	cmp    $0xc8,%r8d
  402af7:	0f 85 d6 00 00 00    	jne    402bd3 <submitr+0x70c>
  402afd:	48 8d 74 24 30       	lea    0x30(%rsp),%rsi
  402b02:	48 89 ef             	mov    %rbp,%rdi
  402b05:	e8 c6 e1 ff ff       	callq  400cd0 <strcpy@plt>
  402b0a:	89 df                	mov    %ebx,%edi
  402b0c:	e8 2f e2 ff ff       	callq  400d40 <close@plt>
  402b11:	0f b6 45 00          	movzbl 0x0(%rbp),%eax
  402b15:	ba 4f 00 00 00       	mov    $0x4f,%edx
  402b1a:	29 c2                	sub    %eax,%edx
  402b1c:	0f 85 e8 00 00 00    	jne    402c0a <submitr+0x743>
  402b22:	0f b6 4d 01          	movzbl 0x1(%rbp),%ecx
  402b26:	b8 4b 00 00 00       	mov    $0x4b,%eax
  402b2b:	29 c8                	sub    %ecx,%eax
  402b2d:	0f 85 d9 00 00 00    	jne    402c0c <submitr+0x745>
  402b33:	0f b6 4d 02          	movzbl 0x2(%rbp),%ecx
  402b37:	b8 0a 00 00 00       	mov    $0xa,%eax
  402b3c:	29 c8                	sub    %ecx,%eax
  402b3e:	0f 85 c8 00 00 00    	jne    402c0c <submitr+0x745>
  402b44:	0f b6 45 03          	movzbl 0x3(%rbp),%eax
  402b48:	f7 d8                	neg    %eax
  402b4a:	e9 bd 00 00 00       	jmpq   402c0c <submitr+0x745>
  402b4f:	48 b8 45 72 72 6f 72 	movabs $0x43203a726f727245,%rax
  402b56:	3a 20 43 
  402b59:	48 ba 6c 69 65 6e 74 	movabs $0x6e7520746e65696c,%rdx
  402b60:	20 75 6e 
  402b63:	48 89 45 00          	mov    %rax,0x0(%rbp)
  402b67:	48 89 55 08          	mov    %rdx,0x8(%rbp)
  402b6b:	48 b8 61 62 6c 65 20 	movabs $0x206f7420656c6261,%rax
  402b72:	74 6f 20 
  402b75:	48 ba 72 65 61 64 20 	movabs $0x6174732064616572,%rdx
  402b7c:	73 74 61 
  402b7f:	48 89 45 10          	mov    %rax,0x10(%rbp)
  402b83:	48 89 55 18          	mov    %rdx,0x18(%rbp)
  402b87:	48 b8 74 75 73 20 6d 	movabs $0x7373656d20737574,%rax
  402b8e:	65 73 73 
  402b91:	48 ba 61 67 65 20 66 	movabs $0x6d6f726620656761,%rdx
  402b98:	72 6f 6d 
  402b9b:	48 89 45 20          	mov    %rax,0x20(%rbp)
  402b9f:	48 89 55 28          	mov    %rdx,0x28(%rbp)
  402ba3:	48 b8 20 72 65 73 75 	movabs $0x20746c7573657220,%rax
  402baa:	6c 74 20 
  402bad:	48 89 45 30          	mov    %rax,0x30(%rbp)
  402bb1:	c7 45 38 73 65 72 76 	movl   $0x76726573,0x38(%rbp)
  402bb8:	66 c7 45 3c 65 72    	movw   $0x7265,0x3c(%rbp)
  402bbe:	c6 45 3e 00          	movb   $0x0,0x3e(%rbp)
  402bc2:	89 df                	mov    %ebx,%edi
  402bc4:	e8 77 e1 ff ff       	callq  400d40 <close@plt>
  402bc9:	b8 ff ff ff ff       	mov    $0xffffffff,%eax
  402bce:	e9 8a fe ff ff       	jmpq   402a5d <submitr+0x596>
  402bd3:	4c 8d 8c 24 30 60 00 	lea    0x6030(%rsp),%r9
  402bda:	00 
  402bdb:	b9 78 37 40 00       	mov    $0x403778,%ecx
  402be0:	48 c7 c2 ff ff ff ff 	mov    $0xffffffffffffffff,%rdx
  402be7:	be 01 00 00 00       	mov    $0x1,%esi
  402bec:	48 89 ef             	mov    %rbp,%rdi
  402bef:	b8 00 00 00 00       	mov    $0x0,%eax
  402bf4:	e8 a7 e2 ff ff       	callq  400ea0 <__sprintf_chk@plt>
  402bf9:	89 df                	mov    %ebx,%edi
  402bfb:	e8 40 e1 ff ff       	callq  400d40 <close@plt>
  402c00:	b8 ff ff ff ff       	mov    $0xffffffff,%eax
  402c05:	e9 53 fe ff ff       	jmpq   402a5d <submitr+0x596>
  402c0a:	89 d0                	mov    %edx,%eax
  402c0c:	85 c0                	test   %eax,%eax
  402c0e:	0f 84 49 fe ff ff    	je     402a5d <submitr+0x596>
  402c14:	bf c0 37 40 00       	mov    $0x4037c0,%edi
  402c19:	b9 05 00 00 00       	mov    $0x5,%ecx
  402c1e:	48 89 ee             	mov    %rbp,%rsi
  402c21:	f3 a6                	repz cmpsb %es:(%rdi),%ds:(%rsi)
  402c23:	0f 97 c0             	seta   %al
  402c26:	1c 00                	sbb    $0x0,%al
  402c28:	0f be c0             	movsbl %al,%eax
  402c2b:	85 c0                	test   %eax,%eax
  402c2d:	0f 84 2a fe ff ff    	je     402a5d <submitr+0x596>
  402c33:	85 d2                	test   %edx,%edx
  402c35:	75 13                	jne    402c4a <submitr+0x783>
  402c37:	0f b6 45 01          	movzbl 0x1(%rbp),%eax
  402c3b:	ba 4b 00 00 00       	mov    $0x4b,%edx
  402c40:	29 c2                	sub    %eax,%edx
  402c42:	75 06                	jne    402c4a <submitr+0x783>
  402c44:	0f b6 55 02          	movzbl 0x2(%rbp),%edx
  402c48:	f7 da                	neg    %edx
  402c4a:	85 d2                	test   %edx,%edx
  402c4c:	75 07                	jne    402c55 <submitr+0x78e>
  402c4e:	89 d0                	mov    %edx,%eax
  402c50:	e9 08 fe ff ff       	jmpq   402a5d <submitr+0x596>
  402c55:	b8 ff ff ff ff       	mov    $0xffffffff,%eax
  402c5a:	e9 fe fd ff ff       	jmpq   402a5d <submitr+0x596>
  402c5f:	e8 9c e0 ff ff       	callq  400d00 <__stack_chk_fail@plt>

0000000000402c64 <init_timeout>:
  402c64:	85 ff                	test   %edi,%edi
  402c66:	74 24                	je     402c8c <init_timeout+0x28>
  402c68:	53                   	push   %rbx
  402c69:	89 fb                	mov    %edi,%ebx
  402c6b:	78 18                	js     402c85 <init_timeout+0x21>
  402c6d:	be 25 22 40 00       	mov    $0x402225,%esi
  402c72:	bf 0e 00 00 00       	mov    $0xe,%edi
  402c77:	e8 f4 e0 ff ff       	callq  400d70 <signal@plt>
  402c7c:	89 df                	mov    %ebx,%edi
  402c7e:	e8 ad e0 ff ff       	callq  400d30 <alarm@plt>
  402c83:	5b                   	pop    %rbx
  402c84:	c3                   	retq   
  402c85:	bb 00 00 00 00       	mov    $0x0,%ebx
  402c8a:	eb e1                	jmp    402c6d <init_timeout+0x9>
  402c8c:	c3                   	retq   

0000000000402c8d <init_driver>:
  402c8d:	55                   	push   %rbp
  402c8e:	53                   	push   %rbx
  402c8f:	48 83 ec 28          	sub    $0x28,%rsp
  402c93:	48 89 fd             	mov    %rdi,%rbp
  402c96:	64 48 8b 04 25 28 00 	mov    %fs:0x28,%rax
  402c9d:	00 00 
  402c9f:	48 89 44 24 18       	mov    %rax,0x18(%rsp)
  402ca4:	31 c0                	xor    %eax,%eax
  402ca6:	be 01 00 00 00       	mov    $0x1,%esi
  402cab:	bf 0d 00 00 00       	mov    $0xd,%edi
  402cb0:	e8 bb e0 ff ff       	callq  400d70 <signal@plt>
  402cb5:	be 01 00 00 00       	mov    $0x1,%esi
  402cba:	bf 1d 00 00 00       	mov    $0x1d,%edi
  402cbf:	e8 ac e0 ff ff       	callq  400d70 <signal@plt>
  402cc4:	be 01 00 00 00       	mov    $0x1,%esi
  402cc9:	bf 1d 00 00 00       	mov    $0x1d,%edi
  402cce:	e8 9d e0 ff ff       	callq  400d70 <signal@plt>
  402cd3:	ba 00 00 00 00       	mov    $0x0,%edx
  402cd8:	be 01 00 00 00       	mov    $0x1,%esi
  402cdd:	bf 02 00 00 00       	mov    $0x2,%edi
  402ce2:	e8 c9 e1 ff ff       	callq  400eb0 <socket@plt>
  402ce7:	85 c0                	test   %eax,%eax
  402ce9:	0f 88 9c 00 00 00    	js     402d8b <init_driver+0xfe>
  402cef:	89 c3                	mov    %eax,%ebx
  402cf1:	bf c5 37 40 00       	mov    $0x4037c5,%edi
  402cf6:	e8 85 e0 ff ff       	callq  400d80 <gethostbyname@plt>
  402cfb:	48 85 c0             	test   %rax,%rax
  402cfe:	0f 84 d3 00 00 00    	je     402dd7 <init_driver+0x14a>
  402d04:	48 c7 44 24 02 00 00 	movq   $0x0,0x2(%rsp)
  402d0b:	00 00 
  402d0d:	c7 44 24 0a 00 00 00 	movl   $0x0,0xa(%rsp)
  402d14:	00 
  402d15:	66 c7 44 24 0e 00 00 	movw   $0x0,0xe(%rsp)
  402d1c:	66 c7 04 24 02 00    	movw   $0x2,(%rsp)
  402d22:	48 63 50 14          	movslq 0x14(%rax),%rdx
  402d26:	48 8b 40 18          	mov    0x18(%rax),%rax
  402d2a:	48 8b 30             	mov    (%rax),%rsi
  402d2d:	48 8d 7c 24 04       	lea    0x4(%rsp),%rdi
  402d32:	b9 0c 00 00 00       	mov    $0xc,%ecx
  402d37:	e8 54 e0 ff ff       	callq  400d90 <__memmove_chk@plt>
  402d3c:	66 c7 44 24 02 3c 9a 	movw   $0x9a3c,0x2(%rsp)
  402d43:	ba 10 00 00 00       	mov    $0x10,%edx
  402d48:	48 89 e6             	mov    %rsp,%rsi
  402d4b:	89 df                	mov    %ebx,%edi
  402d4d:	e8 2e e1 ff ff       	callq  400e80 <connect@plt>
  402d52:	85 c0                	test   %eax,%eax
  402d54:	0f 88 e5 00 00 00    	js     402e3f <init_driver+0x1b2>
  402d5a:	89 df                	mov    %ebx,%edi
  402d5c:	e8 df df ff ff       	callq  400d40 <close@plt>
  402d61:	66 c7 45 00 4f 4b    	movw   $0x4b4f,0x0(%rbp)
  402d67:	c6 45 02 00          	movb   $0x0,0x2(%rbp)
  402d6b:	b8 00 00 00 00       	mov    $0x0,%eax
  402d70:	48 8b 4c 24 18       	mov    0x18(%rsp),%rcx
  402d75:	64 48 33 0c 25 28 00 	xor    %fs:0x28,%rcx
  402d7c:	00 00 
  402d7e:	0f 85 0e 01 00 00    	jne    402e92 <init_driver+0x205>
  402d84:	48 83 c4 28          	add    $0x28,%rsp
  402d88:	5b                   	pop    %rbx
  402d89:	5d                   	pop    %rbp
  402d8a:	c3                   	retq   
  402d8b:	48 b8 45 72 72 6f 72 	movabs $0x43203a726f727245,%rax
  402d92:	3a 20 43 
  402d95:	48 ba 6c 69 65 6e 74 	movabs $0x6e7520746e65696c,%rdx
  402d9c:	20 75 6e 
  402d9f:	48 89 45 00          	mov    %rax,0x0(%rbp)
  402da3:	48 89 55 08          	mov    %rdx,0x8(%rbp)
  402da7:	48 b8 61 62 6c 65 20 	movabs $0x206f7420656c6261,%rax
  402dae:	74 6f 20 
  402db1:	48 ba 63 72 65 61 74 	movabs $0x7320657461657263,%rdx
  402db8:	65 20 73 
  402dbb:	48 89 45 10          	mov    %rax,0x10(%rbp)
  402dbf:	48 89 55 18          	mov    %rdx,0x18(%rbp)
  402dc3:	c7 45 20 6f 63 6b 65 	movl   $0x656b636f,0x20(%rbp)
  402dca:	66 c7 45 24 74 00    	movw   $0x74,0x24(%rbp)
  402dd0:	b8 ff ff ff ff       	mov    $0xffffffff,%eax
  402dd5:	eb 99                	jmp    402d70 <init_driver+0xe3>
  402dd7:	48 b8 45 72 72 6f 72 	movabs $0x44203a726f727245,%rax
  402dde:	3a 20 44 
  402de1:	48 ba 4e 53 20 69 73 	movabs $0x6e7520736920534e,%rdx
  402de8:	20 75 6e 
  402deb:	48 89 45 00          	mov    %rax,0x0(%rbp)
  402def:	48 89 55 08          	mov    %rdx,0x8(%rbp)
  402df3:	48 b8 61 62 6c 65 20 	movabs $0x206f7420656c6261,%rax
  402dfa:	74 6f 20 
  402dfd:	48 ba 72 65 73 6f 6c 	movabs $0x2065766c6f736572,%rdx
  402e04:	76 65 20 
  402e07:	48 89 45 10          	mov    %rax,0x10(%rbp)
  402e0b:	48 89 55 18          	mov    %rdx,0x18(%rbp)
  402e0f:	48 b8 73 65 72 76 65 	movabs $0x6120726576726573,%rax
  402e16:	72 20 61 
  402e19:	48 89 45 20          	mov    %rax,0x20(%rbp)
  402e1d:	c7 45 28 64 64 72 65 	movl   $0x65726464,0x28(%rbp)
  402e24:	66 c7 45 2c 73 73    	movw   $0x7373,0x2c(%rbp)
  402e2a:	c6 45 2e 00          	movb   $0x0,0x2e(%rbp)
  402e2e:	89 df                	mov    %ebx,%edi
  402e30:	e8 0b df ff ff       	callq  400d40 <close@plt>
  402e35:	b8 ff ff ff ff       	mov    $0xffffffff,%eax
  402e3a:	e9 31 ff ff ff       	jmpq   402d70 <init_driver+0xe3>
  402e3f:	48 b8 45 72 72 6f 72 	movabs $0x55203a726f727245,%rax
  402e46:	3a 20 55 
  402e49:	48 ba 6e 61 62 6c 65 	movabs $0x6f7420656c62616e,%rdx
  402e50:	20 74 6f 
  402e53:	48 89 45 00          	mov    %rax,0x0(%rbp)
  402e57:	48 89 55 08          	mov    %rdx,0x8(%rbp)
  402e5b:	48 b8 20 63 6f 6e 6e 	movabs $0x7463656e6e6f6320,%rax
  402e62:	65 63 74 
  402e65:	48 ba 20 74 6f 20 73 	movabs $0x76726573206f7420,%rdx
  402e6c:	65 72 76 
  402e6f:	48 89 45 10          	mov    %rax,0x10(%rbp)
  402e73:	48 89 55 18          	mov    %rdx,0x18(%rbp)
  402e77:	66 c7 45 20 65 72    	movw   $0x7265,0x20(%rbp)
  402e7d:	c6 45 22 00          	movb   $0x0,0x22(%rbp)
  402e81:	89 df                	mov    %ebx,%edi
  402e83:	e8 b8 de ff ff       	callq  400d40 <close@plt>
  402e88:	b8 ff ff ff ff       	mov    $0xffffffff,%eax
  402e8d:	e9 de fe ff ff       	jmpq   402d70 <init_driver+0xe3>
  402e92:	e8 69 de ff ff       	callq  400d00 <__stack_chk_fail@plt>

0000000000402e97 <driver_post>:
  402e97:	53                   	push   %rbx
  402e98:	4c 89 cb             	mov    %r9,%rbx
  402e9b:	45 85 c0             	test   %r8d,%r8d
  402e9e:	75 18                	jne    402eb8 <driver_post+0x21>
  402ea0:	48 85 ff             	test   %rdi,%rdi
  402ea3:	74 05                	je     402eaa <driver_post+0x13>
  402ea5:	80 3f 00             	cmpb   $0x0,(%rdi)
  402ea8:	75 35                	jne    402edf <driver_post+0x48>
  402eaa:	66 c7 03 4f 4b       	movw   $0x4b4f,(%rbx)
  402eaf:	c6 43 02 00          	movb   $0x0,0x2(%rbx)
  402eb3:	44 89 c0             	mov    %r8d,%eax
  402eb6:	5b                   	pop    %rbx
  402eb7:	c3                   	retq   
  402eb8:	48 89 ca             	mov    %rcx,%rdx
  402ebb:	be d9 37 40 00       	mov    $0x4037d9,%esi
  402ec0:	bf 01 00 00 00       	mov    $0x1,%edi
  402ec5:	b8 00 00 00 00       	mov    $0x0,%eax
  402eca:	e8 51 df ff ff       	callq  400e20 <__printf_chk@plt>
  402ecf:	66 c7 03 4f 4b       	movw   $0x4b4f,(%rbx)
  402ed4:	c6 43 02 00          	movb   $0x0,0x2(%rbx)
  402ed8:	b8 00 00 00 00       	mov    $0x0,%eax
  402edd:	eb d7                	jmp    402eb6 <driver_post+0x1f>
  402edf:	48 83 ec 08          	sub    $0x8,%rsp
  402ee3:	41 51                	push   %r9
  402ee5:	49 89 c9             	mov    %rcx,%r9
  402ee8:	49 89 d0             	mov    %rdx,%r8
  402eeb:	48 89 f9             	mov    %rdi,%rcx
  402eee:	48 89 f2             	mov    %rsi,%rdx
  402ef1:	be 9a 3c 00 00       	mov    $0x3c9a,%esi
  402ef6:	bf c5 37 40 00       	mov    $0x4037c5,%edi
  402efb:	e8 c7 f5 ff ff       	callq  4024c7 <submitr>
  402f00:	48 83 c4 10          	add    $0x10,%rsp
  402f04:	eb b0                	jmp    402eb6 <driver_post+0x1f>

0000000000402f06 <check>:
  402f06:	89 f8                	mov    %edi,%eax
  402f08:	c1 e8 1c             	shr    $0x1c,%eax
  402f0b:	74 1d                	je     402f2a <check+0x24>
  402f0d:	b9 00 00 00 00       	mov    $0x0,%ecx
  402f12:	83 f9 1f             	cmp    $0x1f,%ecx
  402f15:	7f 0d                	jg     402f24 <check+0x1e>
  402f17:	89 f8                	mov    %edi,%eax
  402f19:	d3 e8                	shr    %cl,%eax
  402f1b:	3c 0a                	cmp    $0xa,%al
  402f1d:	74 11                	je     402f30 <check+0x2a>
  402f1f:	83 c1 08             	add    $0x8,%ecx
  402f22:	eb ee                	jmp    402f12 <check+0xc>
  402f24:	b8 01 00 00 00       	mov    $0x1,%eax
  402f29:	c3                   	retq   
  402f2a:	b8 00 00 00 00       	mov    $0x0,%eax
  402f2f:	c3                   	retq   
  402f30:	b8 00 00 00 00       	mov    $0x0,%eax
  402f35:	c3                   	retq   

0000000000402f36 <gencookie>:
  402f36:	53                   	push   %rbx
  402f37:	83 c7 01             	add    $0x1,%edi
  402f3a:	e8 71 dd ff ff       	callq  400cb0 <srandom@plt>
  402f3f:	e8 9c de ff ff       	callq  400de0 <random@plt>
  402f44:	89 c3                	mov    %eax,%ebx
  402f46:	89 c7                	mov    %eax,%edi
  402f48:	e8 b9 ff ff ff       	callq  402f06 <check>
  402f4d:	85 c0                	test   %eax,%eax
  402f4f:	74 ee                	je     402f3f <gencookie+0x9>
  402f51:	89 d8                	mov    %ebx,%eax
  402f53:	5b                   	pop    %rbx
  402f54:	c3                   	retq   
  402f55:	66 2e 0f 1f 84 00 00 	nopw   %cs:0x0(%rax,%rax,1)
  402f5c:	00 00 00 
  402f5f:	90                   	nop

0000000000402f60 <__libc_csu_init>:
  402f60:	41 57                	push   %r15
  402f62:	41 89 ff             	mov    %edi,%r15d
  402f65:	41 56                	push   %r14
  402f67:	49 89 f6             	mov    %rsi,%r14
  402f6a:	41 55                	push   %r13
  402f6c:	49 89 d5             	mov    %rdx,%r13
  402f6f:	41 54                	push   %r12
  402f71:	4c 8d 25 a0 1e 20 00 	lea    0x201ea0(%rip),%r12        # 604e18 <__frame_dummy_init_array_entry>
  402f78:	55                   	push   %rbp
  402f79:	48 8d 2d a0 1e 20 00 	lea    0x201ea0(%rip),%rbp        # 604e20 <__init_array_end>
  402f80:	53                   	push   %rbx
  402f81:	4c 29 e5             	sub    %r12,%rbp
  402f84:	31 db                	xor    %ebx,%ebx
  402f86:	48 c1 fd 03          	sar    $0x3,%rbp
  402f8a:	48 83 ec 08          	sub    $0x8,%rsp
  402f8e:	e8 cd dc ff ff       	callq  400c60 <_init>
  402f93:	48 85 ed             	test   %rbp,%rbp
  402f96:	74 1e                	je     402fb6 <__libc_csu_init+0x56>
  402f98:	0f 1f 84 00 00 00 00 	nopl   0x0(%rax,%rax,1)
  402f9f:	00 
  402fa0:	4c 89 ea             	mov    %r13,%rdx
  402fa3:	4c 89 f6             	mov    %r14,%rsi
  402fa6:	44 89 ff             	mov    %r15d,%edi
  402fa9:	41 ff 14 dc          	callq  *(%r12,%rbx,8)
  402fad:	48 83 c3 01          	add    $0x1,%rbx
  402fb1:	48 39 eb             	cmp    %rbp,%rbx
  402fb4:	75 ea                	jne    402fa0 <__libc_csu_init+0x40>
  402fb6:	48 83 c4 08          	add    $0x8,%rsp
  402fba:	5b                   	pop    %rbx
  402fbb:	5d                   	pop    %rbp
  402fbc:	41 5c                	pop    %r12
  402fbe:	41 5d                	pop    %r13
  402fc0:	41 5e                	pop    %r14
  402fc2:	41 5f                	pop    %r15
  402fc4:	c3                   	retq   
  402fc5:	66 66 2e 0f 1f 84 00 	data16 nopw %cs:0x0(%rax,%rax,1)
  402fcc:	00 00 00 00 

0000000000402fd0 <__libc_csu_fini>:
  402fd0:	f3 c3                	repz retq 

Disassembly of section .fini:

0000000000402fd4 <_fini>:
  402fd4:	48 83 ec 08          	sub    $0x8,%rsp
  402fd8:	48 83 c4 08          	add    $0x8,%rsp
  402fdc:	c3                   	retq   
